ARM GAS  C:\Users\vovua\AppData\Local\Temp\cc7FFceq.s 			page 1


   1              		.cpu cortex-m3
   2              		.arch armv7-m
   3              		.fpu softvfp
   4              		.eabi_attribute 20, 1
   5              		.eabi_attribute 21, 1
   6              		.eabi_attribute 23, 3
   7              		.eabi_attribute 24, 1
   8              		.eabi_attribute 25, 1
   9              		.eabi_attribute 26, 1
  10              		.eabi_attribute 30, 1
  11              		.eabi_attribute 34, 1
  12              		.eabi_attribute 18, 4
  13              		.file	"stm32f1xx_hal_dma.c"
  14              		.text
  15              	.Ltext0:
  16              		.cfi_sections	.debug_frame
  17              		.file 1 "C:/Users/vovua/STM32Cube/Repository/STM32Cube_FW_F1_V1.8.4/Drivers/STM32F1xx_HAL_Driver/S
  18              		.section	.text.DMA_SetConfig,"ax",%progbits
  19              		.align	1
  20              		.syntax unified
  21              		.thumb
  22              		.thumb_func
  24              	DMA_SetConfig:
  25              	.LVL0:
  26              	.LFB77:
   1:C:/Users/vovua/STM32Cube/Repository/STM32Cube_FW_F1_V1.8.4/Drivers/STM32F1xx_HAL_Driver/Src\stm32f1xx_hal_dma.c **** /**
   2:C:/Users/vovua/STM32Cube/Repository/STM32Cube_FW_F1_V1.8.4/Drivers/STM32F1xx_HAL_Driver/Src\stm32f1xx_hal_dma.c ****   ******************************************************************************
   3:C:/Users/vovua/STM32Cube/Repository/STM32Cube_FW_F1_V1.8.4/Drivers/STM32F1xx_HAL_Driver/Src\stm32f1xx_hal_dma.c ****   * @file    stm32f1xx_hal_dma.c
   4:C:/Users/vovua/STM32Cube/Repository/STM32Cube_FW_F1_V1.8.4/Drivers/STM32F1xx_HAL_Driver/Src\stm32f1xx_hal_dma.c ****   * @author  MCD Application Team
   5:C:/Users/vovua/STM32Cube/Repository/STM32Cube_FW_F1_V1.8.4/Drivers/STM32F1xx_HAL_Driver/Src\stm32f1xx_hal_dma.c ****   * @brief   DMA HAL module driver.
   6:C:/Users/vovua/STM32Cube/Repository/STM32Cube_FW_F1_V1.8.4/Drivers/STM32F1xx_HAL_Driver/Src\stm32f1xx_hal_dma.c ****   *         This file provides firmware functions to manage the following
   7:C:/Users/vovua/STM32Cube/Repository/STM32Cube_FW_F1_V1.8.4/Drivers/STM32F1xx_HAL_Driver/Src\stm32f1xx_hal_dma.c ****   *         functionalities of the Direct Memory Access (DMA) peripheral:
   8:C:/Users/vovua/STM32Cube/Repository/STM32Cube_FW_F1_V1.8.4/Drivers/STM32F1xx_HAL_Driver/Src\stm32f1xx_hal_dma.c ****   *           + Initialization and de-initialization functions
   9:C:/Users/vovua/STM32Cube/Repository/STM32Cube_FW_F1_V1.8.4/Drivers/STM32F1xx_HAL_Driver/Src\stm32f1xx_hal_dma.c ****   *           + IO operation functions
  10:C:/Users/vovua/STM32Cube/Repository/STM32Cube_FW_F1_V1.8.4/Drivers/STM32F1xx_HAL_Driver/Src\stm32f1xx_hal_dma.c ****   *           + Peripheral State and errors functions
  11:C:/Users/vovua/STM32Cube/Repository/STM32Cube_FW_F1_V1.8.4/Drivers/STM32F1xx_HAL_Driver/Src\stm32f1xx_hal_dma.c ****   @verbatim
  12:C:/Users/vovua/STM32Cube/Repository/STM32Cube_FW_F1_V1.8.4/Drivers/STM32F1xx_HAL_Driver/Src\stm32f1xx_hal_dma.c ****   ==============================================================================
  13:C:/Users/vovua/STM32Cube/Repository/STM32Cube_FW_F1_V1.8.4/Drivers/STM32F1xx_HAL_Driver/Src\stm32f1xx_hal_dma.c ****                         ##### How to use this driver #####
  14:C:/Users/vovua/STM32Cube/Repository/STM32Cube_FW_F1_V1.8.4/Drivers/STM32F1xx_HAL_Driver/Src\stm32f1xx_hal_dma.c ****   ==============================================================================
  15:C:/Users/vovua/STM32Cube/Repository/STM32Cube_FW_F1_V1.8.4/Drivers/STM32F1xx_HAL_Driver/Src\stm32f1xx_hal_dma.c ****   [..]
  16:C:/Users/vovua/STM32Cube/Repository/STM32Cube_FW_F1_V1.8.4/Drivers/STM32F1xx_HAL_Driver/Src\stm32f1xx_hal_dma.c ****    (#) Enable and configure the peripheral to be connected to the DMA Channel
  17:C:/Users/vovua/STM32Cube/Repository/STM32Cube_FW_F1_V1.8.4/Drivers/STM32F1xx_HAL_Driver/Src\stm32f1xx_hal_dma.c ****        (except for internal SRAM / FLASH memories: no initialization is 
  18:C:/Users/vovua/STM32Cube/Repository/STM32Cube_FW_F1_V1.8.4/Drivers/STM32F1xx_HAL_Driver/Src\stm32f1xx_hal_dma.c ****        necessary). Please refer to the Reference manual for connection between peripherals
  19:C:/Users/vovua/STM32Cube/Repository/STM32Cube_FW_F1_V1.8.4/Drivers/STM32F1xx_HAL_Driver/Src\stm32f1xx_hal_dma.c ****        and DMA requests.
  20:C:/Users/vovua/STM32Cube/Repository/STM32Cube_FW_F1_V1.8.4/Drivers/STM32F1xx_HAL_Driver/Src\stm32f1xx_hal_dma.c **** 
  21:C:/Users/vovua/STM32Cube/Repository/STM32Cube_FW_F1_V1.8.4/Drivers/STM32F1xx_HAL_Driver/Src\stm32f1xx_hal_dma.c ****    (#) For a given Channel, program the required configuration through the following parameters:
  22:C:/Users/vovua/STM32Cube/Repository/STM32Cube_FW_F1_V1.8.4/Drivers/STM32F1xx_HAL_Driver/Src\stm32f1xx_hal_dma.c ****        Channel request, Transfer Direction, Source and Destination data formats,
  23:C:/Users/vovua/STM32Cube/Repository/STM32Cube_FW_F1_V1.8.4/Drivers/STM32F1xx_HAL_Driver/Src\stm32f1xx_hal_dma.c ****        Circular or Normal mode, Channel Priority level, Source and Destination Increment mode
  24:C:/Users/vovua/STM32Cube/Repository/STM32Cube_FW_F1_V1.8.4/Drivers/STM32F1xx_HAL_Driver/Src\stm32f1xx_hal_dma.c ****        using HAL_DMA_Init() function.
  25:C:/Users/vovua/STM32Cube/Repository/STM32Cube_FW_F1_V1.8.4/Drivers/STM32F1xx_HAL_Driver/Src\stm32f1xx_hal_dma.c **** 
  26:C:/Users/vovua/STM32Cube/Repository/STM32Cube_FW_F1_V1.8.4/Drivers/STM32F1xx_HAL_Driver/Src\stm32f1xx_hal_dma.c ****    (#) Use HAL_DMA_GetState() function to return the DMA state and HAL_DMA_GetError() in case of er
  27:C:/Users/vovua/STM32Cube/Repository/STM32Cube_FW_F1_V1.8.4/Drivers/STM32F1xx_HAL_Driver/Src\stm32f1xx_hal_dma.c ****        detection.
  28:C:/Users/vovua/STM32Cube/Repository/STM32Cube_FW_F1_V1.8.4/Drivers/STM32F1xx_HAL_Driver/Src\stm32f1xx_hal_dma.c ****                     
  29:C:/Users/vovua/STM32Cube/Repository/STM32Cube_FW_F1_V1.8.4/Drivers/STM32F1xx_HAL_Driver/Src\stm32f1xx_hal_dma.c ****    (#) Use HAL_DMA_Abort() function to abort the current transfer
  30:C:/Users/vovua/STM32Cube/Repository/STM32Cube_FW_F1_V1.8.4/Drivers/STM32F1xx_HAL_Driver/Src\stm32f1xx_hal_dma.c ****                    
  31:C:/Users/vovua/STM32Cube/Repository/STM32Cube_FW_F1_V1.8.4/Drivers/STM32F1xx_HAL_Driver/Src\stm32f1xx_hal_dma.c ****      -@-   In Memory-to-Memory transfer mode, Circular mode is not allowed.
  32:C:/Users/vovua/STM32Cube/Repository/STM32Cube_FW_F1_V1.8.4/Drivers/STM32F1xx_HAL_Driver/Src\stm32f1xx_hal_dma.c ****      *** Polling mode IO operation ***
ARM GAS  C:\Users\vovua\AppData\Local\Temp\cc7FFceq.s 			page 2


  33:C:/Users/vovua/STM32Cube/Repository/STM32Cube_FW_F1_V1.8.4/Drivers/STM32F1xx_HAL_Driver/Src\stm32f1xx_hal_dma.c ****      =================================
  34:C:/Users/vovua/STM32Cube/Repository/STM32Cube_FW_F1_V1.8.4/Drivers/STM32F1xx_HAL_Driver/Src\stm32f1xx_hal_dma.c ****     [..]
  35:C:/Users/vovua/STM32Cube/Repository/STM32Cube_FW_F1_V1.8.4/Drivers/STM32F1xx_HAL_Driver/Src\stm32f1xx_hal_dma.c ****           (+) Use HAL_DMA_Start() to start DMA transfer after the configuration of Source
  36:C:/Users/vovua/STM32Cube/Repository/STM32Cube_FW_F1_V1.8.4/Drivers/STM32F1xx_HAL_Driver/Src\stm32f1xx_hal_dma.c ****               address and destination address and the Length of data to be transferred
  37:C:/Users/vovua/STM32Cube/Repository/STM32Cube_FW_F1_V1.8.4/Drivers/STM32F1xx_HAL_Driver/Src\stm32f1xx_hal_dma.c ****           (+) Use HAL_DMA_PollForTransfer() to poll for the end of current transfer, in this
  38:C:/Users/vovua/STM32Cube/Repository/STM32Cube_FW_F1_V1.8.4/Drivers/STM32F1xx_HAL_Driver/Src\stm32f1xx_hal_dma.c ****               case a fixed Timeout can be configured by User depending from his application.
  39:C:/Users/vovua/STM32Cube/Repository/STM32Cube_FW_F1_V1.8.4/Drivers/STM32F1xx_HAL_Driver/Src\stm32f1xx_hal_dma.c **** 
  40:C:/Users/vovua/STM32Cube/Repository/STM32Cube_FW_F1_V1.8.4/Drivers/STM32F1xx_HAL_Driver/Src\stm32f1xx_hal_dma.c ****      *** Interrupt mode IO operation ***
  41:C:/Users/vovua/STM32Cube/Repository/STM32Cube_FW_F1_V1.8.4/Drivers/STM32F1xx_HAL_Driver/Src\stm32f1xx_hal_dma.c ****      ===================================
  42:C:/Users/vovua/STM32Cube/Repository/STM32Cube_FW_F1_V1.8.4/Drivers/STM32F1xx_HAL_Driver/Src\stm32f1xx_hal_dma.c ****     [..]
  43:C:/Users/vovua/STM32Cube/Repository/STM32Cube_FW_F1_V1.8.4/Drivers/STM32F1xx_HAL_Driver/Src\stm32f1xx_hal_dma.c ****           (+) Configure the DMA interrupt priority using HAL_NVIC_SetPriority()
  44:C:/Users/vovua/STM32Cube/Repository/STM32Cube_FW_F1_V1.8.4/Drivers/STM32F1xx_HAL_Driver/Src\stm32f1xx_hal_dma.c ****           (+) Enable the DMA IRQ handler using HAL_NVIC_EnableIRQ()
  45:C:/Users/vovua/STM32Cube/Repository/STM32Cube_FW_F1_V1.8.4/Drivers/STM32F1xx_HAL_Driver/Src\stm32f1xx_hal_dma.c ****           (+) Use HAL_DMA_Start_IT() to start DMA transfer after the configuration of
  46:C:/Users/vovua/STM32Cube/Repository/STM32Cube_FW_F1_V1.8.4/Drivers/STM32F1xx_HAL_Driver/Src\stm32f1xx_hal_dma.c ****               Source address and destination address and the Length of data to be transferred.
  47:C:/Users/vovua/STM32Cube/Repository/STM32Cube_FW_F1_V1.8.4/Drivers/STM32F1xx_HAL_Driver/Src\stm32f1xx_hal_dma.c ****               In this case the DMA interrupt is configured
  48:C:/Users/vovua/STM32Cube/Repository/STM32Cube_FW_F1_V1.8.4/Drivers/STM32F1xx_HAL_Driver/Src\stm32f1xx_hal_dma.c ****           (+) Use HAL_DMA_IRQHandler() called under DMA_IRQHandler() Interrupt subroutine
  49:C:/Users/vovua/STM32Cube/Repository/STM32Cube_FW_F1_V1.8.4/Drivers/STM32F1xx_HAL_Driver/Src\stm32f1xx_hal_dma.c ****           (+) At the end of data transfer HAL_DMA_IRQHandler() function is executed and user can
  50:C:/Users/vovua/STM32Cube/Repository/STM32Cube_FW_F1_V1.8.4/Drivers/STM32F1xx_HAL_Driver/Src\stm32f1xx_hal_dma.c ****               add his own function by customization of function pointer XferCpltCallback and
  51:C:/Users/vovua/STM32Cube/Repository/STM32Cube_FW_F1_V1.8.4/Drivers/STM32F1xx_HAL_Driver/Src\stm32f1xx_hal_dma.c ****               XferErrorCallback (i.e. a member of DMA handle structure).
  52:C:/Users/vovua/STM32Cube/Repository/STM32Cube_FW_F1_V1.8.4/Drivers/STM32F1xx_HAL_Driver/Src\stm32f1xx_hal_dma.c **** 
  53:C:/Users/vovua/STM32Cube/Repository/STM32Cube_FW_F1_V1.8.4/Drivers/STM32F1xx_HAL_Driver/Src\stm32f1xx_hal_dma.c ****      *** DMA HAL driver macros list ***
  54:C:/Users/vovua/STM32Cube/Repository/STM32Cube_FW_F1_V1.8.4/Drivers/STM32F1xx_HAL_Driver/Src\stm32f1xx_hal_dma.c ****      ============================================= 
  55:C:/Users/vovua/STM32Cube/Repository/STM32Cube_FW_F1_V1.8.4/Drivers/STM32F1xx_HAL_Driver/Src\stm32f1xx_hal_dma.c ****       [..]
  56:C:/Users/vovua/STM32Cube/Repository/STM32Cube_FW_F1_V1.8.4/Drivers/STM32F1xx_HAL_Driver/Src\stm32f1xx_hal_dma.c ****        Below the list of most used macros in DMA HAL driver.
  57:C:/Users/vovua/STM32Cube/Repository/STM32Cube_FW_F1_V1.8.4/Drivers/STM32F1xx_HAL_Driver/Src\stm32f1xx_hal_dma.c **** 
  58:C:/Users/vovua/STM32Cube/Repository/STM32Cube_FW_F1_V1.8.4/Drivers/STM32F1xx_HAL_Driver/Src\stm32f1xx_hal_dma.c ****        (+) __HAL_DMA_ENABLE: Enable the specified DMA Channel.
  59:C:/Users/vovua/STM32Cube/Repository/STM32Cube_FW_F1_V1.8.4/Drivers/STM32F1xx_HAL_Driver/Src\stm32f1xx_hal_dma.c ****        (+) __HAL_DMA_DISABLE: Disable the specified DMA Channel.
  60:C:/Users/vovua/STM32Cube/Repository/STM32Cube_FW_F1_V1.8.4/Drivers/STM32F1xx_HAL_Driver/Src\stm32f1xx_hal_dma.c ****        (+) __HAL_DMA_GET_FLAG: Get the DMA Channel pending flags.
  61:C:/Users/vovua/STM32Cube/Repository/STM32Cube_FW_F1_V1.8.4/Drivers/STM32F1xx_HAL_Driver/Src\stm32f1xx_hal_dma.c ****        (+) __HAL_DMA_CLEAR_FLAG: Clear the DMA Channel pending flags.
  62:C:/Users/vovua/STM32Cube/Repository/STM32Cube_FW_F1_V1.8.4/Drivers/STM32F1xx_HAL_Driver/Src\stm32f1xx_hal_dma.c ****        (+) __HAL_DMA_ENABLE_IT: Enable the specified DMA Channel interrupts.
  63:C:/Users/vovua/STM32Cube/Repository/STM32Cube_FW_F1_V1.8.4/Drivers/STM32F1xx_HAL_Driver/Src\stm32f1xx_hal_dma.c ****        (+) __HAL_DMA_DISABLE_IT: Disable the specified DMA Channel interrupts.
  64:C:/Users/vovua/STM32Cube/Repository/STM32Cube_FW_F1_V1.8.4/Drivers/STM32F1xx_HAL_Driver/Src\stm32f1xx_hal_dma.c ****        (+) __HAL_DMA_GET_IT_SOURCE: Check whether the specified DMA Channel interrupt has occurred 
  65:C:/Users/vovua/STM32Cube/Repository/STM32Cube_FW_F1_V1.8.4/Drivers/STM32F1xx_HAL_Driver/Src\stm32f1xx_hal_dma.c **** 
  66:C:/Users/vovua/STM32Cube/Repository/STM32Cube_FW_F1_V1.8.4/Drivers/STM32F1xx_HAL_Driver/Src\stm32f1xx_hal_dma.c ****      [..] 
  67:C:/Users/vovua/STM32Cube/Repository/STM32Cube_FW_F1_V1.8.4/Drivers/STM32F1xx_HAL_Driver/Src\stm32f1xx_hal_dma.c ****       (@) You can refer to the DMA HAL driver header file for more useful macros  
  68:C:/Users/vovua/STM32Cube/Repository/STM32Cube_FW_F1_V1.8.4/Drivers/STM32F1xx_HAL_Driver/Src\stm32f1xx_hal_dma.c **** 
  69:C:/Users/vovua/STM32Cube/Repository/STM32Cube_FW_F1_V1.8.4/Drivers/STM32F1xx_HAL_Driver/Src\stm32f1xx_hal_dma.c ****   @endverbatim
  70:C:/Users/vovua/STM32Cube/Repository/STM32Cube_FW_F1_V1.8.4/Drivers/STM32F1xx_HAL_Driver/Src\stm32f1xx_hal_dma.c ****   ******************************************************************************
  71:C:/Users/vovua/STM32Cube/Repository/STM32Cube_FW_F1_V1.8.4/Drivers/STM32F1xx_HAL_Driver/Src\stm32f1xx_hal_dma.c ****   * @attention
  72:C:/Users/vovua/STM32Cube/Repository/STM32Cube_FW_F1_V1.8.4/Drivers/STM32F1xx_HAL_Driver/Src\stm32f1xx_hal_dma.c ****   *
  73:C:/Users/vovua/STM32Cube/Repository/STM32Cube_FW_F1_V1.8.4/Drivers/STM32F1xx_HAL_Driver/Src\stm32f1xx_hal_dma.c ****   * <h2><center>&copy; Copyright (c) 2016 STMicroelectronics.
  74:C:/Users/vovua/STM32Cube/Repository/STM32Cube_FW_F1_V1.8.4/Drivers/STM32F1xx_HAL_Driver/Src\stm32f1xx_hal_dma.c ****   * All rights reserved.</center></h2>
  75:C:/Users/vovua/STM32Cube/Repository/STM32Cube_FW_F1_V1.8.4/Drivers/STM32F1xx_HAL_Driver/Src\stm32f1xx_hal_dma.c ****   *
  76:C:/Users/vovua/STM32Cube/Repository/STM32Cube_FW_F1_V1.8.4/Drivers/STM32F1xx_HAL_Driver/Src\stm32f1xx_hal_dma.c ****   * This software component is licensed by ST under BSD 3-Clause license,
  77:C:/Users/vovua/STM32Cube/Repository/STM32Cube_FW_F1_V1.8.4/Drivers/STM32F1xx_HAL_Driver/Src\stm32f1xx_hal_dma.c ****   * the "License"; You may not use this file except in compliance with the
  78:C:/Users/vovua/STM32Cube/Repository/STM32Cube_FW_F1_V1.8.4/Drivers/STM32F1xx_HAL_Driver/Src\stm32f1xx_hal_dma.c ****   * License. You may obtain a copy of the License at:
  79:C:/Users/vovua/STM32Cube/Repository/STM32Cube_FW_F1_V1.8.4/Drivers/STM32F1xx_HAL_Driver/Src\stm32f1xx_hal_dma.c ****   *                        opensource.org/licenses/BSD-3-Clause
  80:C:/Users/vovua/STM32Cube/Repository/STM32Cube_FW_F1_V1.8.4/Drivers/STM32F1xx_HAL_Driver/Src\stm32f1xx_hal_dma.c ****   *
  81:C:/Users/vovua/STM32Cube/Repository/STM32Cube_FW_F1_V1.8.4/Drivers/STM32F1xx_HAL_Driver/Src\stm32f1xx_hal_dma.c ****   ******************************************************************************
  82:C:/Users/vovua/STM32Cube/Repository/STM32Cube_FW_F1_V1.8.4/Drivers/STM32F1xx_HAL_Driver/Src\stm32f1xx_hal_dma.c ****   */
  83:C:/Users/vovua/STM32Cube/Repository/STM32Cube_FW_F1_V1.8.4/Drivers/STM32F1xx_HAL_Driver/Src\stm32f1xx_hal_dma.c **** 
  84:C:/Users/vovua/STM32Cube/Repository/STM32Cube_FW_F1_V1.8.4/Drivers/STM32F1xx_HAL_Driver/Src\stm32f1xx_hal_dma.c **** /* Includes ------------------------------------------------------------------*/
  85:C:/Users/vovua/STM32Cube/Repository/STM32Cube_FW_F1_V1.8.4/Drivers/STM32F1xx_HAL_Driver/Src\stm32f1xx_hal_dma.c **** #include "stm32f1xx_hal.h"
  86:C:/Users/vovua/STM32Cube/Repository/STM32Cube_FW_F1_V1.8.4/Drivers/STM32F1xx_HAL_Driver/Src\stm32f1xx_hal_dma.c **** 
  87:C:/Users/vovua/STM32Cube/Repository/STM32Cube_FW_F1_V1.8.4/Drivers/STM32F1xx_HAL_Driver/Src\stm32f1xx_hal_dma.c **** /** @addtogroup STM32F1xx_HAL_Driver
  88:C:/Users/vovua/STM32Cube/Repository/STM32Cube_FW_F1_V1.8.4/Drivers/STM32F1xx_HAL_Driver/Src\stm32f1xx_hal_dma.c ****   * @{
  89:C:/Users/vovua/STM32Cube/Repository/STM32Cube_FW_F1_V1.8.4/Drivers/STM32F1xx_HAL_Driver/Src\stm32f1xx_hal_dma.c ****   */
ARM GAS  C:\Users\vovua\AppData\Local\Temp\cc7FFceq.s 			page 3


  90:C:/Users/vovua/STM32Cube/Repository/STM32Cube_FW_F1_V1.8.4/Drivers/STM32F1xx_HAL_Driver/Src\stm32f1xx_hal_dma.c **** 
  91:C:/Users/vovua/STM32Cube/Repository/STM32Cube_FW_F1_V1.8.4/Drivers/STM32F1xx_HAL_Driver/Src\stm32f1xx_hal_dma.c **** /** @defgroup DMA DMA
  92:C:/Users/vovua/STM32Cube/Repository/STM32Cube_FW_F1_V1.8.4/Drivers/STM32F1xx_HAL_Driver/Src\stm32f1xx_hal_dma.c ****   * @brief DMA HAL module driver
  93:C:/Users/vovua/STM32Cube/Repository/STM32Cube_FW_F1_V1.8.4/Drivers/STM32F1xx_HAL_Driver/Src\stm32f1xx_hal_dma.c ****   * @{
  94:C:/Users/vovua/STM32Cube/Repository/STM32Cube_FW_F1_V1.8.4/Drivers/STM32F1xx_HAL_Driver/Src\stm32f1xx_hal_dma.c ****   */
  95:C:/Users/vovua/STM32Cube/Repository/STM32Cube_FW_F1_V1.8.4/Drivers/STM32F1xx_HAL_Driver/Src\stm32f1xx_hal_dma.c **** 
  96:C:/Users/vovua/STM32Cube/Repository/STM32Cube_FW_F1_V1.8.4/Drivers/STM32F1xx_HAL_Driver/Src\stm32f1xx_hal_dma.c **** #ifdef HAL_DMA_MODULE_ENABLED
  97:C:/Users/vovua/STM32Cube/Repository/STM32Cube_FW_F1_V1.8.4/Drivers/STM32F1xx_HAL_Driver/Src\stm32f1xx_hal_dma.c **** 
  98:C:/Users/vovua/STM32Cube/Repository/STM32Cube_FW_F1_V1.8.4/Drivers/STM32F1xx_HAL_Driver/Src\stm32f1xx_hal_dma.c **** /* Private typedef -----------------------------------------------------------*/
  99:C:/Users/vovua/STM32Cube/Repository/STM32Cube_FW_F1_V1.8.4/Drivers/STM32F1xx_HAL_Driver/Src\stm32f1xx_hal_dma.c **** /* Private define ------------------------------------------------------------*/
 100:C:/Users/vovua/STM32Cube/Repository/STM32Cube_FW_F1_V1.8.4/Drivers/STM32F1xx_HAL_Driver/Src\stm32f1xx_hal_dma.c **** /* Private macro -------------------------------------------------------------*/
 101:C:/Users/vovua/STM32Cube/Repository/STM32Cube_FW_F1_V1.8.4/Drivers/STM32F1xx_HAL_Driver/Src\stm32f1xx_hal_dma.c **** /* Private variables ---------------------------------------------------------*/
 102:C:/Users/vovua/STM32Cube/Repository/STM32Cube_FW_F1_V1.8.4/Drivers/STM32F1xx_HAL_Driver/Src\stm32f1xx_hal_dma.c **** /* Private function prototypes -----------------------------------------------*/
 103:C:/Users/vovua/STM32Cube/Repository/STM32Cube_FW_F1_V1.8.4/Drivers/STM32F1xx_HAL_Driver/Src\stm32f1xx_hal_dma.c **** /** @defgroup DMA_Private_Functions DMA Private Functions
 104:C:/Users/vovua/STM32Cube/Repository/STM32Cube_FW_F1_V1.8.4/Drivers/STM32F1xx_HAL_Driver/Src\stm32f1xx_hal_dma.c ****   * @{
 105:C:/Users/vovua/STM32Cube/Repository/STM32Cube_FW_F1_V1.8.4/Drivers/STM32F1xx_HAL_Driver/Src\stm32f1xx_hal_dma.c ****   */
 106:C:/Users/vovua/STM32Cube/Repository/STM32Cube_FW_F1_V1.8.4/Drivers/STM32F1xx_HAL_Driver/Src\stm32f1xx_hal_dma.c **** static void DMA_SetConfig(DMA_HandleTypeDef *hdma, uint32_t SrcAddress, uint32_t DstAddress, uint32
 107:C:/Users/vovua/STM32Cube/Repository/STM32Cube_FW_F1_V1.8.4/Drivers/STM32F1xx_HAL_Driver/Src\stm32f1xx_hal_dma.c **** /**
 108:C:/Users/vovua/STM32Cube/Repository/STM32Cube_FW_F1_V1.8.4/Drivers/STM32F1xx_HAL_Driver/Src\stm32f1xx_hal_dma.c ****   * @}
 109:C:/Users/vovua/STM32Cube/Repository/STM32Cube_FW_F1_V1.8.4/Drivers/STM32F1xx_HAL_Driver/Src\stm32f1xx_hal_dma.c ****   */
 110:C:/Users/vovua/STM32Cube/Repository/STM32Cube_FW_F1_V1.8.4/Drivers/STM32F1xx_HAL_Driver/Src\stm32f1xx_hal_dma.c **** 
 111:C:/Users/vovua/STM32Cube/Repository/STM32Cube_FW_F1_V1.8.4/Drivers/STM32F1xx_HAL_Driver/Src\stm32f1xx_hal_dma.c **** /* Exported functions ---------------------------------------------------------*/
 112:C:/Users/vovua/STM32Cube/Repository/STM32Cube_FW_F1_V1.8.4/Drivers/STM32F1xx_HAL_Driver/Src\stm32f1xx_hal_dma.c **** 
 113:C:/Users/vovua/STM32Cube/Repository/STM32Cube_FW_F1_V1.8.4/Drivers/STM32F1xx_HAL_Driver/Src\stm32f1xx_hal_dma.c **** /** @defgroup DMA_Exported_Functions DMA Exported Functions
 114:C:/Users/vovua/STM32Cube/Repository/STM32Cube_FW_F1_V1.8.4/Drivers/STM32F1xx_HAL_Driver/Src\stm32f1xx_hal_dma.c ****   * @{
 115:C:/Users/vovua/STM32Cube/Repository/STM32Cube_FW_F1_V1.8.4/Drivers/STM32F1xx_HAL_Driver/Src\stm32f1xx_hal_dma.c ****   */
 116:C:/Users/vovua/STM32Cube/Repository/STM32Cube_FW_F1_V1.8.4/Drivers/STM32F1xx_HAL_Driver/Src\stm32f1xx_hal_dma.c **** 
 117:C:/Users/vovua/STM32Cube/Repository/STM32Cube_FW_F1_V1.8.4/Drivers/STM32F1xx_HAL_Driver/Src\stm32f1xx_hal_dma.c **** /** @defgroup DMA_Exported_Functions_Group1 Initialization and de-initialization functions
 118:C:/Users/vovua/STM32Cube/Repository/STM32Cube_FW_F1_V1.8.4/Drivers/STM32F1xx_HAL_Driver/Src\stm32f1xx_hal_dma.c ****   *  @brief   Initialization and de-initialization functions 
 119:C:/Users/vovua/STM32Cube/Repository/STM32Cube_FW_F1_V1.8.4/Drivers/STM32F1xx_HAL_Driver/Src\stm32f1xx_hal_dma.c ****   *
 120:C:/Users/vovua/STM32Cube/Repository/STM32Cube_FW_F1_V1.8.4/Drivers/STM32F1xx_HAL_Driver/Src\stm32f1xx_hal_dma.c **** @verbatim
 121:C:/Users/vovua/STM32Cube/Repository/STM32Cube_FW_F1_V1.8.4/Drivers/STM32F1xx_HAL_Driver/Src\stm32f1xx_hal_dma.c ****  ===============================================================================
 122:C:/Users/vovua/STM32Cube/Repository/STM32Cube_FW_F1_V1.8.4/Drivers/STM32F1xx_HAL_Driver/Src\stm32f1xx_hal_dma.c ****              ##### Initialization and de-initialization functions  #####
 123:C:/Users/vovua/STM32Cube/Repository/STM32Cube_FW_F1_V1.8.4/Drivers/STM32F1xx_HAL_Driver/Src\stm32f1xx_hal_dma.c ****  ===============================================================================
 124:C:/Users/vovua/STM32Cube/Repository/STM32Cube_FW_F1_V1.8.4/Drivers/STM32F1xx_HAL_Driver/Src\stm32f1xx_hal_dma.c ****     [..]
 125:C:/Users/vovua/STM32Cube/Repository/STM32Cube_FW_F1_V1.8.4/Drivers/STM32F1xx_HAL_Driver/Src\stm32f1xx_hal_dma.c ****     This section provides functions allowing to initialize the DMA Channel source
 126:C:/Users/vovua/STM32Cube/Repository/STM32Cube_FW_F1_V1.8.4/Drivers/STM32F1xx_HAL_Driver/Src\stm32f1xx_hal_dma.c ****     and destination addresses, incrementation and data sizes, transfer direction, 
 127:C:/Users/vovua/STM32Cube/Repository/STM32Cube_FW_F1_V1.8.4/Drivers/STM32F1xx_HAL_Driver/Src\stm32f1xx_hal_dma.c ****     circular/normal mode selection, memory-to-memory mode selection and Channel priority value.
 128:C:/Users/vovua/STM32Cube/Repository/STM32Cube_FW_F1_V1.8.4/Drivers/STM32F1xx_HAL_Driver/Src\stm32f1xx_hal_dma.c ****     [..]
 129:C:/Users/vovua/STM32Cube/Repository/STM32Cube_FW_F1_V1.8.4/Drivers/STM32F1xx_HAL_Driver/Src\stm32f1xx_hal_dma.c ****     The HAL_DMA_Init() function follows the DMA configuration procedures as described in
 130:C:/Users/vovua/STM32Cube/Repository/STM32Cube_FW_F1_V1.8.4/Drivers/STM32F1xx_HAL_Driver/Src\stm32f1xx_hal_dma.c ****     reference manual.  
 131:C:/Users/vovua/STM32Cube/Repository/STM32Cube_FW_F1_V1.8.4/Drivers/STM32F1xx_HAL_Driver/Src\stm32f1xx_hal_dma.c **** 
 132:C:/Users/vovua/STM32Cube/Repository/STM32Cube_FW_F1_V1.8.4/Drivers/STM32F1xx_HAL_Driver/Src\stm32f1xx_hal_dma.c **** @endverbatim
 133:C:/Users/vovua/STM32Cube/Repository/STM32Cube_FW_F1_V1.8.4/Drivers/STM32F1xx_HAL_Driver/Src\stm32f1xx_hal_dma.c ****   * @{
 134:C:/Users/vovua/STM32Cube/Repository/STM32Cube_FW_F1_V1.8.4/Drivers/STM32F1xx_HAL_Driver/Src\stm32f1xx_hal_dma.c ****   */
 135:C:/Users/vovua/STM32Cube/Repository/STM32Cube_FW_F1_V1.8.4/Drivers/STM32F1xx_HAL_Driver/Src\stm32f1xx_hal_dma.c **** 
 136:C:/Users/vovua/STM32Cube/Repository/STM32Cube_FW_F1_V1.8.4/Drivers/STM32F1xx_HAL_Driver/Src\stm32f1xx_hal_dma.c **** /**
 137:C:/Users/vovua/STM32Cube/Repository/STM32Cube_FW_F1_V1.8.4/Drivers/STM32F1xx_HAL_Driver/Src\stm32f1xx_hal_dma.c ****   * @brief  Initialize the DMA according to the specified
 138:C:/Users/vovua/STM32Cube/Repository/STM32Cube_FW_F1_V1.8.4/Drivers/STM32F1xx_HAL_Driver/Src\stm32f1xx_hal_dma.c ****   *         parameters in the DMA_InitTypeDef and initialize the associated handle.
 139:C:/Users/vovua/STM32Cube/Repository/STM32Cube_FW_F1_V1.8.4/Drivers/STM32F1xx_HAL_Driver/Src\stm32f1xx_hal_dma.c ****   * @param  hdma: Pointer to a DMA_HandleTypeDef structure that contains
 140:C:/Users/vovua/STM32Cube/Repository/STM32Cube_FW_F1_V1.8.4/Drivers/STM32F1xx_HAL_Driver/Src\stm32f1xx_hal_dma.c ****   *               the configuration information for the specified DMA Channel.
 141:C:/Users/vovua/STM32Cube/Repository/STM32Cube_FW_F1_V1.8.4/Drivers/STM32F1xx_HAL_Driver/Src\stm32f1xx_hal_dma.c ****   * @retval HAL status
 142:C:/Users/vovua/STM32Cube/Repository/STM32Cube_FW_F1_V1.8.4/Drivers/STM32F1xx_HAL_Driver/Src\stm32f1xx_hal_dma.c ****   */
 143:C:/Users/vovua/STM32Cube/Repository/STM32Cube_FW_F1_V1.8.4/Drivers/STM32F1xx_HAL_Driver/Src\stm32f1xx_hal_dma.c **** HAL_StatusTypeDef HAL_DMA_Init(DMA_HandleTypeDef *hdma)
 144:C:/Users/vovua/STM32Cube/Repository/STM32Cube_FW_F1_V1.8.4/Drivers/STM32F1xx_HAL_Driver/Src\stm32f1xx_hal_dma.c **** {
 145:C:/Users/vovua/STM32Cube/Repository/STM32Cube_FW_F1_V1.8.4/Drivers/STM32F1xx_HAL_Driver/Src\stm32f1xx_hal_dma.c ****   uint32_t tmp = 0U;
 146:C:/Users/vovua/STM32Cube/Repository/STM32Cube_FW_F1_V1.8.4/Drivers/STM32F1xx_HAL_Driver/Src\stm32f1xx_hal_dma.c **** 
ARM GAS  C:\Users\vovua\AppData\Local\Temp\cc7FFceq.s 			page 4


 147:C:/Users/vovua/STM32Cube/Repository/STM32Cube_FW_F1_V1.8.4/Drivers/STM32F1xx_HAL_Driver/Src\stm32f1xx_hal_dma.c ****   /* Check the DMA handle allocation */
 148:C:/Users/vovua/STM32Cube/Repository/STM32Cube_FW_F1_V1.8.4/Drivers/STM32F1xx_HAL_Driver/Src\stm32f1xx_hal_dma.c ****   if(hdma == NULL)
 149:C:/Users/vovua/STM32Cube/Repository/STM32Cube_FW_F1_V1.8.4/Drivers/STM32F1xx_HAL_Driver/Src\stm32f1xx_hal_dma.c ****   {
 150:C:/Users/vovua/STM32Cube/Repository/STM32Cube_FW_F1_V1.8.4/Drivers/STM32F1xx_HAL_Driver/Src\stm32f1xx_hal_dma.c ****     return HAL_ERROR;
 151:C:/Users/vovua/STM32Cube/Repository/STM32Cube_FW_F1_V1.8.4/Drivers/STM32F1xx_HAL_Driver/Src\stm32f1xx_hal_dma.c ****   }
 152:C:/Users/vovua/STM32Cube/Repository/STM32Cube_FW_F1_V1.8.4/Drivers/STM32F1xx_HAL_Driver/Src\stm32f1xx_hal_dma.c **** 
 153:C:/Users/vovua/STM32Cube/Repository/STM32Cube_FW_F1_V1.8.4/Drivers/STM32F1xx_HAL_Driver/Src\stm32f1xx_hal_dma.c ****   /* Check the parameters */
 154:C:/Users/vovua/STM32Cube/Repository/STM32Cube_FW_F1_V1.8.4/Drivers/STM32F1xx_HAL_Driver/Src\stm32f1xx_hal_dma.c ****   assert_param(IS_DMA_ALL_INSTANCE(hdma->Instance));
 155:C:/Users/vovua/STM32Cube/Repository/STM32Cube_FW_F1_V1.8.4/Drivers/STM32F1xx_HAL_Driver/Src\stm32f1xx_hal_dma.c ****   assert_param(IS_DMA_DIRECTION(hdma->Init.Direction));
 156:C:/Users/vovua/STM32Cube/Repository/STM32Cube_FW_F1_V1.8.4/Drivers/STM32F1xx_HAL_Driver/Src\stm32f1xx_hal_dma.c ****   assert_param(IS_DMA_PERIPHERAL_INC_STATE(hdma->Init.PeriphInc));
 157:C:/Users/vovua/STM32Cube/Repository/STM32Cube_FW_F1_V1.8.4/Drivers/STM32F1xx_HAL_Driver/Src\stm32f1xx_hal_dma.c ****   assert_param(IS_DMA_MEMORY_INC_STATE(hdma->Init.MemInc));
 158:C:/Users/vovua/STM32Cube/Repository/STM32Cube_FW_F1_V1.8.4/Drivers/STM32F1xx_HAL_Driver/Src\stm32f1xx_hal_dma.c ****   assert_param(IS_DMA_PERIPHERAL_DATA_SIZE(hdma->Init.PeriphDataAlignment));
 159:C:/Users/vovua/STM32Cube/Repository/STM32Cube_FW_F1_V1.8.4/Drivers/STM32F1xx_HAL_Driver/Src\stm32f1xx_hal_dma.c ****   assert_param(IS_DMA_MEMORY_DATA_SIZE(hdma->Init.MemDataAlignment));
 160:C:/Users/vovua/STM32Cube/Repository/STM32Cube_FW_F1_V1.8.4/Drivers/STM32F1xx_HAL_Driver/Src\stm32f1xx_hal_dma.c ****   assert_param(IS_DMA_MODE(hdma->Init.Mode));
 161:C:/Users/vovua/STM32Cube/Repository/STM32Cube_FW_F1_V1.8.4/Drivers/STM32F1xx_HAL_Driver/Src\stm32f1xx_hal_dma.c ****   assert_param(IS_DMA_PRIORITY(hdma->Init.Priority));
 162:C:/Users/vovua/STM32Cube/Repository/STM32Cube_FW_F1_V1.8.4/Drivers/STM32F1xx_HAL_Driver/Src\stm32f1xx_hal_dma.c **** 
 163:C:/Users/vovua/STM32Cube/Repository/STM32Cube_FW_F1_V1.8.4/Drivers/STM32F1xx_HAL_Driver/Src\stm32f1xx_hal_dma.c **** #if defined (DMA2)
 164:C:/Users/vovua/STM32Cube/Repository/STM32Cube_FW_F1_V1.8.4/Drivers/STM32F1xx_HAL_Driver/Src\stm32f1xx_hal_dma.c ****   /* calculation of the channel index */
 165:C:/Users/vovua/STM32Cube/Repository/STM32Cube_FW_F1_V1.8.4/Drivers/STM32F1xx_HAL_Driver/Src\stm32f1xx_hal_dma.c ****   if ((uint32_t)(hdma->Instance) < (uint32_t)(DMA2_Channel1))
 166:C:/Users/vovua/STM32Cube/Repository/STM32Cube_FW_F1_V1.8.4/Drivers/STM32F1xx_HAL_Driver/Src\stm32f1xx_hal_dma.c ****   {
 167:C:/Users/vovua/STM32Cube/Repository/STM32Cube_FW_F1_V1.8.4/Drivers/STM32F1xx_HAL_Driver/Src\stm32f1xx_hal_dma.c ****     /* DMA1 */
 168:C:/Users/vovua/STM32Cube/Repository/STM32Cube_FW_F1_V1.8.4/Drivers/STM32F1xx_HAL_Driver/Src\stm32f1xx_hal_dma.c ****     hdma->ChannelIndex = (((uint32_t)hdma->Instance - (uint32_t)DMA1_Channel1) / ((uint32_t)DMA1_Ch
 169:C:/Users/vovua/STM32Cube/Repository/STM32Cube_FW_F1_V1.8.4/Drivers/STM32F1xx_HAL_Driver/Src\stm32f1xx_hal_dma.c ****     hdma->DmaBaseAddress = DMA1;
 170:C:/Users/vovua/STM32Cube/Repository/STM32Cube_FW_F1_V1.8.4/Drivers/STM32F1xx_HAL_Driver/Src\stm32f1xx_hal_dma.c ****   }
 171:C:/Users/vovua/STM32Cube/Repository/STM32Cube_FW_F1_V1.8.4/Drivers/STM32F1xx_HAL_Driver/Src\stm32f1xx_hal_dma.c ****   else 
 172:C:/Users/vovua/STM32Cube/Repository/STM32Cube_FW_F1_V1.8.4/Drivers/STM32F1xx_HAL_Driver/Src\stm32f1xx_hal_dma.c ****   {
 173:C:/Users/vovua/STM32Cube/Repository/STM32Cube_FW_F1_V1.8.4/Drivers/STM32F1xx_HAL_Driver/Src\stm32f1xx_hal_dma.c ****     /* DMA2 */
 174:C:/Users/vovua/STM32Cube/Repository/STM32Cube_FW_F1_V1.8.4/Drivers/STM32F1xx_HAL_Driver/Src\stm32f1xx_hal_dma.c ****     hdma->ChannelIndex = (((uint32_t)hdma->Instance - (uint32_t)DMA2_Channel1) / ((uint32_t)DMA2_Ch
 175:C:/Users/vovua/STM32Cube/Repository/STM32Cube_FW_F1_V1.8.4/Drivers/STM32F1xx_HAL_Driver/Src\stm32f1xx_hal_dma.c ****     hdma->DmaBaseAddress = DMA2;
 176:C:/Users/vovua/STM32Cube/Repository/STM32Cube_FW_F1_V1.8.4/Drivers/STM32F1xx_HAL_Driver/Src\stm32f1xx_hal_dma.c ****   }
 177:C:/Users/vovua/STM32Cube/Repository/STM32Cube_FW_F1_V1.8.4/Drivers/STM32F1xx_HAL_Driver/Src\stm32f1xx_hal_dma.c **** #else
 178:C:/Users/vovua/STM32Cube/Repository/STM32Cube_FW_F1_V1.8.4/Drivers/STM32F1xx_HAL_Driver/Src\stm32f1xx_hal_dma.c ****   /* DMA1 */
 179:C:/Users/vovua/STM32Cube/Repository/STM32Cube_FW_F1_V1.8.4/Drivers/STM32F1xx_HAL_Driver/Src\stm32f1xx_hal_dma.c ****   hdma->ChannelIndex = (((uint32_t)hdma->Instance - (uint32_t)DMA1_Channel1) / ((uint32_t)DMA1_Chan
 180:C:/Users/vovua/STM32Cube/Repository/STM32Cube_FW_F1_V1.8.4/Drivers/STM32F1xx_HAL_Driver/Src\stm32f1xx_hal_dma.c ****   hdma->DmaBaseAddress = DMA1;
 181:C:/Users/vovua/STM32Cube/Repository/STM32Cube_FW_F1_V1.8.4/Drivers/STM32F1xx_HAL_Driver/Src\stm32f1xx_hal_dma.c **** #endif /* DMA2 */
 182:C:/Users/vovua/STM32Cube/Repository/STM32Cube_FW_F1_V1.8.4/Drivers/STM32F1xx_HAL_Driver/Src\stm32f1xx_hal_dma.c **** 
 183:C:/Users/vovua/STM32Cube/Repository/STM32Cube_FW_F1_V1.8.4/Drivers/STM32F1xx_HAL_Driver/Src\stm32f1xx_hal_dma.c ****   /* Change DMA peripheral state */
 184:C:/Users/vovua/STM32Cube/Repository/STM32Cube_FW_F1_V1.8.4/Drivers/STM32F1xx_HAL_Driver/Src\stm32f1xx_hal_dma.c ****   hdma->State = HAL_DMA_STATE_BUSY;
 185:C:/Users/vovua/STM32Cube/Repository/STM32Cube_FW_F1_V1.8.4/Drivers/STM32F1xx_HAL_Driver/Src\stm32f1xx_hal_dma.c **** 
 186:C:/Users/vovua/STM32Cube/Repository/STM32Cube_FW_F1_V1.8.4/Drivers/STM32F1xx_HAL_Driver/Src\stm32f1xx_hal_dma.c ****   /* Get the CR register value */
 187:C:/Users/vovua/STM32Cube/Repository/STM32Cube_FW_F1_V1.8.4/Drivers/STM32F1xx_HAL_Driver/Src\stm32f1xx_hal_dma.c ****   tmp = hdma->Instance->CCR;
 188:C:/Users/vovua/STM32Cube/Repository/STM32Cube_FW_F1_V1.8.4/Drivers/STM32F1xx_HAL_Driver/Src\stm32f1xx_hal_dma.c **** 
 189:C:/Users/vovua/STM32Cube/Repository/STM32Cube_FW_F1_V1.8.4/Drivers/STM32F1xx_HAL_Driver/Src\stm32f1xx_hal_dma.c ****   /* Clear PL, MSIZE, PSIZE, MINC, PINC, CIRC and DIR bits */
 190:C:/Users/vovua/STM32Cube/Repository/STM32Cube_FW_F1_V1.8.4/Drivers/STM32F1xx_HAL_Driver/Src\stm32f1xx_hal_dma.c ****   tmp &= ((uint32_t)~(DMA_CCR_PL    | DMA_CCR_MSIZE  | DMA_CCR_PSIZE  | \
 191:C:/Users/vovua/STM32Cube/Repository/STM32Cube_FW_F1_V1.8.4/Drivers/STM32F1xx_HAL_Driver/Src\stm32f1xx_hal_dma.c ****                       DMA_CCR_MINC  | DMA_CCR_PINC   | DMA_CCR_CIRC   | \
 192:C:/Users/vovua/STM32Cube/Repository/STM32Cube_FW_F1_V1.8.4/Drivers/STM32F1xx_HAL_Driver/Src\stm32f1xx_hal_dma.c ****                       DMA_CCR_DIR));
 193:C:/Users/vovua/STM32Cube/Repository/STM32Cube_FW_F1_V1.8.4/Drivers/STM32F1xx_HAL_Driver/Src\stm32f1xx_hal_dma.c **** 
 194:C:/Users/vovua/STM32Cube/Repository/STM32Cube_FW_F1_V1.8.4/Drivers/STM32F1xx_HAL_Driver/Src\stm32f1xx_hal_dma.c ****   /* Prepare the DMA Channel configuration */
 195:C:/Users/vovua/STM32Cube/Repository/STM32Cube_FW_F1_V1.8.4/Drivers/STM32F1xx_HAL_Driver/Src\stm32f1xx_hal_dma.c ****   tmp |=  hdma->Init.Direction        |
 196:C:/Users/vovua/STM32Cube/Repository/STM32Cube_FW_F1_V1.8.4/Drivers/STM32F1xx_HAL_Driver/Src\stm32f1xx_hal_dma.c ****           hdma->Init.PeriphInc           | hdma->Init.MemInc           |
 197:C:/Users/vovua/STM32Cube/Repository/STM32Cube_FW_F1_V1.8.4/Drivers/STM32F1xx_HAL_Driver/Src\stm32f1xx_hal_dma.c ****           hdma->Init.PeriphDataAlignment | hdma->Init.MemDataAlignment |
 198:C:/Users/vovua/STM32Cube/Repository/STM32Cube_FW_F1_V1.8.4/Drivers/STM32F1xx_HAL_Driver/Src\stm32f1xx_hal_dma.c ****           hdma->Init.Mode                | hdma->Init.Priority;
 199:C:/Users/vovua/STM32Cube/Repository/STM32Cube_FW_F1_V1.8.4/Drivers/STM32F1xx_HAL_Driver/Src\stm32f1xx_hal_dma.c **** 
 200:C:/Users/vovua/STM32Cube/Repository/STM32Cube_FW_F1_V1.8.4/Drivers/STM32F1xx_HAL_Driver/Src\stm32f1xx_hal_dma.c ****   /* Write to DMA Channel CR register */
 201:C:/Users/vovua/STM32Cube/Repository/STM32Cube_FW_F1_V1.8.4/Drivers/STM32F1xx_HAL_Driver/Src\stm32f1xx_hal_dma.c ****   hdma->Instance->CCR = tmp;
 202:C:/Users/vovua/STM32Cube/Repository/STM32Cube_FW_F1_V1.8.4/Drivers/STM32F1xx_HAL_Driver/Src\stm32f1xx_hal_dma.c **** 
 203:C:/Users/vovua/STM32Cube/Repository/STM32Cube_FW_F1_V1.8.4/Drivers/STM32F1xx_HAL_Driver/Src\stm32f1xx_hal_dma.c ****   /* Initialise the error code */
ARM GAS  C:\Users\vovua\AppData\Local\Temp\cc7FFceq.s 			page 5


 204:C:/Users/vovua/STM32Cube/Repository/STM32Cube_FW_F1_V1.8.4/Drivers/STM32F1xx_HAL_Driver/Src\stm32f1xx_hal_dma.c ****   hdma->ErrorCode = HAL_DMA_ERROR_NONE;
 205:C:/Users/vovua/STM32Cube/Repository/STM32Cube_FW_F1_V1.8.4/Drivers/STM32F1xx_HAL_Driver/Src\stm32f1xx_hal_dma.c **** 
 206:C:/Users/vovua/STM32Cube/Repository/STM32Cube_FW_F1_V1.8.4/Drivers/STM32F1xx_HAL_Driver/Src\stm32f1xx_hal_dma.c ****   /* Initialize the DMA state*/
 207:C:/Users/vovua/STM32Cube/Repository/STM32Cube_FW_F1_V1.8.4/Drivers/STM32F1xx_HAL_Driver/Src\stm32f1xx_hal_dma.c ****   hdma->State = HAL_DMA_STATE_READY;
 208:C:/Users/vovua/STM32Cube/Repository/STM32Cube_FW_F1_V1.8.4/Drivers/STM32F1xx_HAL_Driver/Src\stm32f1xx_hal_dma.c ****   /* Allocate lock resource and initialize it */
 209:C:/Users/vovua/STM32Cube/Repository/STM32Cube_FW_F1_V1.8.4/Drivers/STM32F1xx_HAL_Driver/Src\stm32f1xx_hal_dma.c ****   hdma->Lock = HAL_UNLOCKED;
 210:C:/Users/vovua/STM32Cube/Repository/STM32Cube_FW_F1_V1.8.4/Drivers/STM32F1xx_HAL_Driver/Src\stm32f1xx_hal_dma.c **** 
 211:C:/Users/vovua/STM32Cube/Repository/STM32Cube_FW_F1_V1.8.4/Drivers/STM32F1xx_HAL_Driver/Src\stm32f1xx_hal_dma.c ****   return HAL_OK;
 212:C:/Users/vovua/STM32Cube/Repository/STM32Cube_FW_F1_V1.8.4/Drivers/STM32F1xx_HAL_Driver/Src\stm32f1xx_hal_dma.c **** }
 213:C:/Users/vovua/STM32Cube/Repository/STM32Cube_FW_F1_V1.8.4/Drivers/STM32F1xx_HAL_Driver/Src\stm32f1xx_hal_dma.c **** 
 214:C:/Users/vovua/STM32Cube/Repository/STM32Cube_FW_F1_V1.8.4/Drivers/STM32F1xx_HAL_Driver/Src\stm32f1xx_hal_dma.c **** /**
 215:C:/Users/vovua/STM32Cube/Repository/STM32Cube_FW_F1_V1.8.4/Drivers/STM32F1xx_HAL_Driver/Src\stm32f1xx_hal_dma.c ****   * @brief  DeInitialize the DMA peripheral.
 216:C:/Users/vovua/STM32Cube/Repository/STM32Cube_FW_F1_V1.8.4/Drivers/STM32F1xx_HAL_Driver/Src\stm32f1xx_hal_dma.c ****   * @param  hdma: pointer to a DMA_HandleTypeDef structure that contains
 217:C:/Users/vovua/STM32Cube/Repository/STM32Cube_FW_F1_V1.8.4/Drivers/STM32F1xx_HAL_Driver/Src\stm32f1xx_hal_dma.c ****   *               the configuration information for the specified DMA Channel.
 218:C:/Users/vovua/STM32Cube/Repository/STM32Cube_FW_F1_V1.8.4/Drivers/STM32F1xx_HAL_Driver/Src\stm32f1xx_hal_dma.c ****   * @retval HAL status
 219:C:/Users/vovua/STM32Cube/Repository/STM32Cube_FW_F1_V1.8.4/Drivers/STM32F1xx_HAL_Driver/Src\stm32f1xx_hal_dma.c ****   */
 220:C:/Users/vovua/STM32Cube/Repository/STM32Cube_FW_F1_V1.8.4/Drivers/STM32F1xx_HAL_Driver/Src\stm32f1xx_hal_dma.c **** HAL_StatusTypeDef HAL_DMA_DeInit(DMA_HandleTypeDef *hdma)
 221:C:/Users/vovua/STM32Cube/Repository/STM32Cube_FW_F1_V1.8.4/Drivers/STM32F1xx_HAL_Driver/Src\stm32f1xx_hal_dma.c **** {
 222:C:/Users/vovua/STM32Cube/Repository/STM32Cube_FW_F1_V1.8.4/Drivers/STM32F1xx_HAL_Driver/Src\stm32f1xx_hal_dma.c ****   /* Check the DMA handle allocation */
 223:C:/Users/vovua/STM32Cube/Repository/STM32Cube_FW_F1_V1.8.4/Drivers/STM32F1xx_HAL_Driver/Src\stm32f1xx_hal_dma.c ****   if(hdma == NULL)
 224:C:/Users/vovua/STM32Cube/Repository/STM32Cube_FW_F1_V1.8.4/Drivers/STM32F1xx_HAL_Driver/Src\stm32f1xx_hal_dma.c ****   {
 225:C:/Users/vovua/STM32Cube/Repository/STM32Cube_FW_F1_V1.8.4/Drivers/STM32F1xx_HAL_Driver/Src\stm32f1xx_hal_dma.c ****     return HAL_ERROR;
 226:C:/Users/vovua/STM32Cube/Repository/STM32Cube_FW_F1_V1.8.4/Drivers/STM32F1xx_HAL_Driver/Src\stm32f1xx_hal_dma.c ****   }
 227:C:/Users/vovua/STM32Cube/Repository/STM32Cube_FW_F1_V1.8.4/Drivers/STM32F1xx_HAL_Driver/Src\stm32f1xx_hal_dma.c **** 
 228:C:/Users/vovua/STM32Cube/Repository/STM32Cube_FW_F1_V1.8.4/Drivers/STM32F1xx_HAL_Driver/Src\stm32f1xx_hal_dma.c ****   /* Check the parameters */
 229:C:/Users/vovua/STM32Cube/Repository/STM32Cube_FW_F1_V1.8.4/Drivers/STM32F1xx_HAL_Driver/Src\stm32f1xx_hal_dma.c ****   assert_param(IS_DMA_ALL_INSTANCE(hdma->Instance));
 230:C:/Users/vovua/STM32Cube/Repository/STM32Cube_FW_F1_V1.8.4/Drivers/STM32F1xx_HAL_Driver/Src\stm32f1xx_hal_dma.c **** 
 231:C:/Users/vovua/STM32Cube/Repository/STM32Cube_FW_F1_V1.8.4/Drivers/STM32F1xx_HAL_Driver/Src\stm32f1xx_hal_dma.c ****   /* Disable the selected DMA Channelx */
 232:C:/Users/vovua/STM32Cube/Repository/STM32Cube_FW_F1_V1.8.4/Drivers/STM32F1xx_HAL_Driver/Src\stm32f1xx_hal_dma.c ****   __HAL_DMA_DISABLE(hdma);
 233:C:/Users/vovua/STM32Cube/Repository/STM32Cube_FW_F1_V1.8.4/Drivers/STM32F1xx_HAL_Driver/Src\stm32f1xx_hal_dma.c **** 
 234:C:/Users/vovua/STM32Cube/Repository/STM32Cube_FW_F1_V1.8.4/Drivers/STM32F1xx_HAL_Driver/Src\stm32f1xx_hal_dma.c ****   /* Reset DMA Channel control register */
 235:C:/Users/vovua/STM32Cube/Repository/STM32Cube_FW_F1_V1.8.4/Drivers/STM32F1xx_HAL_Driver/Src\stm32f1xx_hal_dma.c ****   hdma->Instance->CCR  = 0U;
 236:C:/Users/vovua/STM32Cube/Repository/STM32Cube_FW_F1_V1.8.4/Drivers/STM32F1xx_HAL_Driver/Src\stm32f1xx_hal_dma.c **** 
 237:C:/Users/vovua/STM32Cube/Repository/STM32Cube_FW_F1_V1.8.4/Drivers/STM32F1xx_HAL_Driver/Src\stm32f1xx_hal_dma.c ****   /* Reset DMA Channel Number of Data to Transfer register */
 238:C:/Users/vovua/STM32Cube/Repository/STM32Cube_FW_F1_V1.8.4/Drivers/STM32F1xx_HAL_Driver/Src\stm32f1xx_hal_dma.c ****   hdma->Instance->CNDTR = 0U;
 239:C:/Users/vovua/STM32Cube/Repository/STM32Cube_FW_F1_V1.8.4/Drivers/STM32F1xx_HAL_Driver/Src\stm32f1xx_hal_dma.c **** 
 240:C:/Users/vovua/STM32Cube/Repository/STM32Cube_FW_F1_V1.8.4/Drivers/STM32F1xx_HAL_Driver/Src\stm32f1xx_hal_dma.c ****   /* Reset DMA Channel peripheral address register */
 241:C:/Users/vovua/STM32Cube/Repository/STM32Cube_FW_F1_V1.8.4/Drivers/STM32F1xx_HAL_Driver/Src\stm32f1xx_hal_dma.c ****   hdma->Instance->CPAR  = 0U;
 242:C:/Users/vovua/STM32Cube/Repository/STM32Cube_FW_F1_V1.8.4/Drivers/STM32F1xx_HAL_Driver/Src\stm32f1xx_hal_dma.c **** 
 243:C:/Users/vovua/STM32Cube/Repository/STM32Cube_FW_F1_V1.8.4/Drivers/STM32F1xx_HAL_Driver/Src\stm32f1xx_hal_dma.c ****   /* Reset DMA Channel memory address register */
 244:C:/Users/vovua/STM32Cube/Repository/STM32Cube_FW_F1_V1.8.4/Drivers/STM32F1xx_HAL_Driver/Src\stm32f1xx_hal_dma.c ****   hdma->Instance->CMAR = 0U;
 245:C:/Users/vovua/STM32Cube/Repository/STM32Cube_FW_F1_V1.8.4/Drivers/STM32F1xx_HAL_Driver/Src\stm32f1xx_hal_dma.c **** 
 246:C:/Users/vovua/STM32Cube/Repository/STM32Cube_FW_F1_V1.8.4/Drivers/STM32F1xx_HAL_Driver/Src\stm32f1xx_hal_dma.c **** #if defined (DMA2)
 247:C:/Users/vovua/STM32Cube/Repository/STM32Cube_FW_F1_V1.8.4/Drivers/STM32F1xx_HAL_Driver/Src\stm32f1xx_hal_dma.c ****   /* calculation of the channel index */
 248:C:/Users/vovua/STM32Cube/Repository/STM32Cube_FW_F1_V1.8.4/Drivers/STM32F1xx_HAL_Driver/Src\stm32f1xx_hal_dma.c ****   if ((uint32_t)(hdma->Instance) < (uint32_t)(DMA2_Channel1))
 249:C:/Users/vovua/STM32Cube/Repository/STM32Cube_FW_F1_V1.8.4/Drivers/STM32F1xx_HAL_Driver/Src\stm32f1xx_hal_dma.c ****   {
 250:C:/Users/vovua/STM32Cube/Repository/STM32Cube_FW_F1_V1.8.4/Drivers/STM32F1xx_HAL_Driver/Src\stm32f1xx_hal_dma.c ****     /* DMA1 */
 251:C:/Users/vovua/STM32Cube/Repository/STM32Cube_FW_F1_V1.8.4/Drivers/STM32F1xx_HAL_Driver/Src\stm32f1xx_hal_dma.c ****     hdma->ChannelIndex = (((uint32_t)hdma->Instance - (uint32_t)DMA1_Channel1) / ((uint32_t)DMA1_Ch
 252:C:/Users/vovua/STM32Cube/Repository/STM32Cube_FW_F1_V1.8.4/Drivers/STM32F1xx_HAL_Driver/Src\stm32f1xx_hal_dma.c ****     hdma->DmaBaseAddress = DMA1;
 253:C:/Users/vovua/STM32Cube/Repository/STM32Cube_FW_F1_V1.8.4/Drivers/STM32F1xx_HAL_Driver/Src\stm32f1xx_hal_dma.c ****   }
 254:C:/Users/vovua/STM32Cube/Repository/STM32Cube_FW_F1_V1.8.4/Drivers/STM32F1xx_HAL_Driver/Src\stm32f1xx_hal_dma.c ****   else
 255:C:/Users/vovua/STM32Cube/Repository/STM32Cube_FW_F1_V1.8.4/Drivers/STM32F1xx_HAL_Driver/Src\stm32f1xx_hal_dma.c ****   {
 256:C:/Users/vovua/STM32Cube/Repository/STM32Cube_FW_F1_V1.8.4/Drivers/STM32F1xx_HAL_Driver/Src\stm32f1xx_hal_dma.c ****     /* DMA2 */
 257:C:/Users/vovua/STM32Cube/Repository/STM32Cube_FW_F1_V1.8.4/Drivers/STM32F1xx_HAL_Driver/Src\stm32f1xx_hal_dma.c ****     hdma->ChannelIndex = (((uint32_t)hdma->Instance - (uint32_t)DMA2_Channel1) / ((uint32_t)DMA2_Ch
 258:C:/Users/vovua/STM32Cube/Repository/STM32Cube_FW_F1_V1.8.4/Drivers/STM32F1xx_HAL_Driver/Src\stm32f1xx_hal_dma.c ****     hdma->DmaBaseAddress = DMA2;
 259:C:/Users/vovua/STM32Cube/Repository/STM32Cube_FW_F1_V1.8.4/Drivers/STM32F1xx_HAL_Driver/Src\stm32f1xx_hal_dma.c ****   }
 260:C:/Users/vovua/STM32Cube/Repository/STM32Cube_FW_F1_V1.8.4/Drivers/STM32F1xx_HAL_Driver/Src\stm32f1xx_hal_dma.c **** #else
ARM GAS  C:\Users\vovua\AppData\Local\Temp\cc7FFceq.s 			page 6


 261:C:/Users/vovua/STM32Cube/Repository/STM32Cube_FW_F1_V1.8.4/Drivers/STM32F1xx_HAL_Driver/Src\stm32f1xx_hal_dma.c ****   /* DMA1 */
 262:C:/Users/vovua/STM32Cube/Repository/STM32Cube_FW_F1_V1.8.4/Drivers/STM32F1xx_HAL_Driver/Src\stm32f1xx_hal_dma.c ****   hdma->ChannelIndex = (((uint32_t)hdma->Instance - (uint32_t)DMA1_Channel1) / ((uint32_t)DMA1_Chan
 263:C:/Users/vovua/STM32Cube/Repository/STM32Cube_FW_F1_V1.8.4/Drivers/STM32F1xx_HAL_Driver/Src\stm32f1xx_hal_dma.c ****   hdma->DmaBaseAddress = DMA1;
 264:C:/Users/vovua/STM32Cube/Repository/STM32Cube_FW_F1_V1.8.4/Drivers/STM32F1xx_HAL_Driver/Src\stm32f1xx_hal_dma.c **** #endif /* DMA2 */
 265:C:/Users/vovua/STM32Cube/Repository/STM32Cube_FW_F1_V1.8.4/Drivers/STM32F1xx_HAL_Driver/Src\stm32f1xx_hal_dma.c **** 
 266:C:/Users/vovua/STM32Cube/Repository/STM32Cube_FW_F1_V1.8.4/Drivers/STM32F1xx_HAL_Driver/Src\stm32f1xx_hal_dma.c ****   /* Clear all flags */
 267:C:/Users/vovua/STM32Cube/Repository/STM32Cube_FW_F1_V1.8.4/Drivers/STM32F1xx_HAL_Driver/Src\stm32f1xx_hal_dma.c ****   hdma->DmaBaseAddress->IFCR = (DMA_ISR_GIF1 << (hdma->ChannelIndex));
 268:C:/Users/vovua/STM32Cube/Repository/STM32Cube_FW_F1_V1.8.4/Drivers/STM32F1xx_HAL_Driver/Src\stm32f1xx_hal_dma.c **** 
 269:C:/Users/vovua/STM32Cube/Repository/STM32Cube_FW_F1_V1.8.4/Drivers/STM32F1xx_HAL_Driver/Src\stm32f1xx_hal_dma.c ****   /* Clean all callbacks */
 270:C:/Users/vovua/STM32Cube/Repository/STM32Cube_FW_F1_V1.8.4/Drivers/STM32F1xx_HAL_Driver/Src\stm32f1xx_hal_dma.c ****   hdma->XferCpltCallback = NULL;
 271:C:/Users/vovua/STM32Cube/Repository/STM32Cube_FW_F1_V1.8.4/Drivers/STM32F1xx_HAL_Driver/Src\stm32f1xx_hal_dma.c ****   hdma->XferHalfCpltCallback = NULL;
 272:C:/Users/vovua/STM32Cube/Repository/STM32Cube_FW_F1_V1.8.4/Drivers/STM32F1xx_HAL_Driver/Src\stm32f1xx_hal_dma.c ****   hdma->XferErrorCallback = NULL;
 273:C:/Users/vovua/STM32Cube/Repository/STM32Cube_FW_F1_V1.8.4/Drivers/STM32F1xx_HAL_Driver/Src\stm32f1xx_hal_dma.c ****   hdma->XferAbortCallback = NULL;
 274:C:/Users/vovua/STM32Cube/Repository/STM32Cube_FW_F1_V1.8.4/Drivers/STM32F1xx_HAL_Driver/Src\stm32f1xx_hal_dma.c **** 
 275:C:/Users/vovua/STM32Cube/Repository/STM32Cube_FW_F1_V1.8.4/Drivers/STM32F1xx_HAL_Driver/Src\stm32f1xx_hal_dma.c ****   /* Reset the error code */
 276:C:/Users/vovua/STM32Cube/Repository/STM32Cube_FW_F1_V1.8.4/Drivers/STM32F1xx_HAL_Driver/Src\stm32f1xx_hal_dma.c ****   hdma->ErrorCode = HAL_DMA_ERROR_NONE;
 277:C:/Users/vovua/STM32Cube/Repository/STM32Cube_FW_F1_V1.8.4/Drivers/STM32F1xx_HAL_Driver/Src\stm32f1xx_hal_dma.c **** 
 278:C:/Users/vovua/STM32Cube/Repository/STM32Cube_FW_F1_V1.8.4/Drivers/STM32F1xx_HAL_Driver/Src\stm32f1xx_hal_dma.c ****   /* Reset the DMA state */
 279:C:/Users/vovua/STM32Cube/Repository/STM32Cube_FW_F1_V1.8.4/Drivers/STM32F1xx_HAL_Driver/Src\stm32f1xx_hal_dma.c ****   hdma->State = HAL_DMA_STATE_RESET;
 280:C:/Users/vovua/STM32Cube/Repository/STM32Cube_FW_F1_V1.8.4/Drivers/STM32F1xx_HAL_Driver/Src\stm32f1xx_hal_dma.c **** 
 281:C:/Users/vovua/STM32Cube/Repository/STM32Cube_FW_F1_V1.8.4/Drivers/STM32F1xx_HAL_Driver/Src\stm32f1xx_hal_dma.c ****   /* Release Lock */
 282:C:/Users/vovua/STM32Cube/Repository/STM32Cube_FW_F1_V1.8.4/Drivers/STM32F1xx_HAL_Driver/Src\stm32f1xx_hal_dma.c ****   __HAL_UNLOCK(hdma);
 283:C:/Users/vovua/STM32Cube/Repository/STM32Cube_FW_F1_V1.8.4/Drivers/STM32F1xx_HAL_Driver/Src\stm32f1xx_hal_dma.c **** 
 284:C:/Users/vovua/STM32Cube/Repository/STM32Cube_FW_F1_V1.8.4/Drivers/STM32F1xx_HAL_Driver/Src\stm32f1xx_hal_dma.c ****   return HAL_OK;
 285:C:/Users/vovua/STM32Cube/Repository/STM32Cube_FW_F1_V1.8.4/Drivers/STM32F1xx_HAL_Driver/Src\stm32f1xx_hal_dma.c **** }
 286:C:/Users/vovua/STM32Cube/Repository/STM32Cube_FW_F1_V1.8.4/Drivers/STM32F1xx_HAL_Driver/Src\stm32f1xx_hal_dma.c **** 
 287:C:/Users/vovua/STM32Cube/Repository/STM32Cube_FW_F1_V1.8.4/Drivers/STM32F1xx_HAL_Driver/Src\stm32f1xx_hal_dma.c **** /**
 288:C:/Users/vovua/STM32Cube/Repository/STM32Cube_FW_F1_V1.8.4/Drivers/STM32F1xx_HAL_Driver/Src\stm32f1xx_hal_dma.c ****   * @}
 289:C:/Users/vovua/STM32Cube/Repository/STM32Cube_FW_F1_V1.8.4/Drivers/STM32F1xx_HAL_Driver/Src\stm32f1xx_hal_dma.c ****   */
 290:C:/Users/vovua/STM32Cube/Repository/STM32Cube_FW_F1_V1.8.4/Drivers/STM32F1xx_HAL_Driver/Src\stm32f1xx_hal_dma.c **** 
 291:C:/Users/vovua/STM32Cube/Repository/STM32Cube_FW_F1_V1.8.4/Drivers/STM32F1xx_HAL_Driver/Src\stm32f1xx_hal_dma.c **** /** @defgroup DMA_Exported_Functions_Group2 Input and Output operation functions
 292:C:/Users/vovua/STM32Cube/Repository/STM32Cube_FW_F1_V1.8.4/Drivers/STM32F1xx_HAL_Driver/Src\stm32f1xx_hal_dma.c ****   *  @brief   Input and Output operation functions
 293:C:/Users/vovua/STM32Cube/Repository/STM32Cube_FW_F1_V1.8.4/Drivers/STM32F1xx_HAL_Driver/Src\stm32f1xx_hal_dma.c ****   *
 294:C:/Users/vovua/STM32Cube/Repository/STM32Cube_FW_F1_V1.8.4/Drivers/STM32F1xx_HAL_Driver/Src\stm32f1xx_hal_dma.c **** @verbatim
 295:C:/Users/vovua/STM32Cube/Repository/STM32Cube_FW_F1_V1.8.4/Drivers/STM32F1xx_HAL_Driver/Src\stm32f1xx_hal_dma.c ****  ===============================================================================
 296:C:/Users/vovua/STM32Cube/Repository/STM32Cube_FW_F1_V1.8.4/Drivers/STM32F1xx_HAL_Driver/Src\stm32f1xx_hal_dma.c ****                       #####  IO operation functions  #####
 297:C:/Users/vovua/STM32Cube/Repository/STM32Cube_FW_F1_V1.8.4/Drivers/STM32F1xx_HAL_Driver/Src\stm32f1xx_hal_dma.c ****  ===============================================================================
 298:C:/Users/vovua/STM32Cube/Repository/STM32Cube_FW_F1_V1.8.4/Drivers/STM32F1xx_HAL_Driver/Src\stm32f1xx_hal_dma.c ****     [..]  This section provides functions allowing to:
 299:C:/Users/vovua/STM32Cube/Repository/STM32Cube_FW_F1_V1.8.4/Drivers/STM32F1xx_HAL_Driver/Src\stm32f1xx_hal_dma.c ****       (+) Configure the source, destination address and data length and Start DMA transfer
 300:C:/Users/vovua/STM32Cube/Repository/STM32Cube_FW_F1_V1.8.4/Drivers/STM32F1xx_HAL_Driver/Src\stm32f1xx_hal_dma.c ****       (+) Configure the source, destination address and data length and
 301:C:/Users/vovua/STM32Cube/Repository/STM32Cube_FW_F1_V1.8.4/Drivers/STM32F1xx_HAL_Driver/Src\stm32f1xx_hal_dma.c ****           Start DMA transfer with interrupt
 302:C:/Users/vovua/STM32Cube/Repository/STM32Cube_FW_F1_V1.8.4/Drivers/STM32F1xx_HAL_Driver/Src\stm32f1xx_hal_dma.c ****       (+) Abort DMA transfer
 303:C:/Users/vovua/STM32Cube/Repository/STM32Cube_FW_F1_V1.8.4/Drivers/STM32F1xx_HAL_Driver/Src\stm32f1xx_hal_dma.c ****       (+) Poll for transfer complete
 304:C:/Users/vovua/STM32Cube/Repository/STM32Cube_FW_F1_V1.8.4/Drivers/STM32F1xx_HAL_Driver/Src\stm32f1xx_hal_dma.c ****       (+) Handle DMA interrupt request
 305:C:/Users/vovua/STM32Cube/Repository/STM32Cube_FW_F1_V1.8.4/Drivers/STM32F1xx_HAL_Driver/Src\stm32f1xx_hal_dma.c **** 
 306:C:/Users/vovua/STM32Cube/Repository/STM32Cube_FW_F1_V1.8.4/Drivers/STM32F1xx_HAL_Driver/Src\stm32f1xx_hal_dma.c **** @endverbatim
 307:C:/Users/vovua/STM32Cube/Repository/STM32Cube_FW_F1_V1.8.4/Drivers/STM32F1xx_HAL_Driver/Src\stm32f1xx_hal_dma.c ****   * @{
 308:C:/Users/vovua/STM32Cube/Repository/STM32Cube_FW_F1_V1.8.4/Drivers/STM32F1xx_HAL_Driver/Src\stm32f1xx_hal_dma.c ****   */
 309:C:/Users/vovua/STM32Cube/Repository/STM32Cube_FW_F1_V1.8.4/Drivers/STM32F1xx_HAL_Driver/Src\stm32f1xx_hal_dma.c **** 
 310:C:/Users/vovua/STM32Cube/Repository/STM32Cube_FW_F1_V1.8.4/Drivers/STM32F1xx_HAL_Driver/Src\stm32f1xx_hal_dma.c **** /**
 311:C:/Users/vovua/STM32Cube/Repository/STM32Cube_FW_F1_V1.8.4/Drivers/STM32F1xx_HAL_Driver/Src\stm32f1xx_hal_dma.c ****   * @brief  Start the DMA Transfer.
 312:C:/Users/vovua/STM32Cube/Repository/STM32Cube_FW_F1_V1.8.4/Drivers/STM32F1xx_HAL_Driver/Src\stm32f1xx_hal_dma.c ****   * @param  hdma: pointer to a DMA_HandleTypeDef structure that contains
 313:C:/Users/vovua/STM32Cube/Repository/STM32Cube_FW_F1_V1.8.4/Drivers/STM32F1xx_HAL_Driver/Src\stm32f1xx_hal_dma.c ****   *               the configuration information for the specified DMA Channel.
 314:C:/Users/vovua/STM32Cube/Repository/STM32Cube_FW_F1_V1.8.4/Drivers/STM32F1xx_HAL_Driver/Src\stm32f1xx_hal_dma.c ****   * @param  SrcAddress: The source memory Buffer address
 315:C:/Users/vovua/STM32Cube/Repository/STM32Cube_FW_F1_V1.8.4/Drivers/STM32F1xx_HAL_Driver/Src\stm32f1xx_hal_dma.c ****   * @param  DstAddress: The destination memory Buffer address
 316:C:/Users/vovua/STM32Cube/Repository/STM32Cube_FW_F1_V1.8.4/Drivers/STM32F1xx_HAL_Driver/Src\stm32f1xx_hal_dma.c ****   * @param  DataLength: The length of data to be transferred from source to destination
 317:C:/Users/vovua/STM32Cube/Repository/STM32Cube_FW_F1_V1.8.4/Drivers/STM32F1xx_HAL_Driver/Src\stm32f1xx_hal_dma.c ****   * @retval HAL status
ARM GAS  C:\Users\vovua\AppData\Local\Temp\cc7FFceq.s 			page 7


 318:C:/Users/vovua/STM32Cube/Repository/STM32Cube_FW_F1_V1.8.4/Drivers/STM32F1xx_HAL_Driver/Src\stm32f1xx_hal_dma.c ****   */
 319:C:/Users/vovua/STM32Cube/Repository/STM32Cube_FW_F1_V1.8.4/Drivers/STM32F1xx_HAL_Driver/Src\stm32f1xx_hal_dma.c **** HAL_StatusTypeDef HAL_DMA_Start(DMA_HandleTypeDef *hdma, uint32_t SrcAddress, uint32_t DstAddress, 
 320:C:/Users/vovua/STM32Cube/Repository/STM32Cube_FW_F1_V1.8.4/Drivers/STM32F1xx_HAL_Driver/Src\stm32f1xx_hal_dma.c **** {
 321:C:/Users/vovua/STM32Cube/Repository/STM32Cube_FW_F1_V1.8.4/Drivers/STM32F1xx_HAL_Driver/Src\stm32f1xx_hal_dma.c ****   HAL_StatusTypeDef status = HAL_OK;
 322:C:/Users/vovua/STM32Cube/Repository/STM32Cube_FW_F1_V1.8.4/Drivers/STM32F1xx_HAL_Driver/Src\stm32f1xx_hal_dma.c **** 
 323:C:/Users/vovua/STM32Cube/Repository/STM32Cube_FW_F1_V1.8.4/Drivers/STM32F1xx_HAL_Driver/Src\stm32f1xx_hal_dma.c ****   /* Check the parameters */
 324:C:/Users/vovua/STM32Cube/Repository/STM32Cube_FW_F1_V1.8.4/Drivers/STM32F1xx_HAL_Driver/Src\stm32f1xx_hal_dma.c ****   assert_param(IS_DMA_BUFFER_SIZE(DataLength));
 325:C:/Users/vovua/STM32Cube/Repository/STM32Cube_FW_F1_V1.8.4/Drivers/STM32F1xx_HAL_Driver/Src\stm32f1xx_hal_dma.c **** 
 326:C:/Users/vovua/STM32Cube/Repository/STM32Cube_FW_F1_V1.8.4/Drivers/STM32F1xx_HAL_Driver/Src\stm32f1xx_hal_dma.c ****   /* Process locked */
 327:C:/Users/vovua/STM32Cube/Repository/STM32Cube_FW_F1_V1.8.4/Drivers/STM32F1xx_HAL_Driver/Src\stm32f1xx_hal_dma.c ****   __HAL_LOCK(hdma);
 328:C:/Users/vovua/STM32Cube/Repository/STM32Cube_FW_F1_V1.8.4/Drivers/STM32F1xx_HAL_Driver/Src\stm32f1xx_hal_dma.c **** 
 329:C:/Users/vovua/STM32Cube/Repository/STM32Cube_FW_F1_V1.8.4/Drivers/STM32F1xx_HAL_Driver/Src\stm32f1xx_hal_dma.c ****   if(HAL_DMA_STATE_READY == hdma->State)
 330:C:/Users/vovua/STM32Cube/Repository/STM32Cube_FW_F1_V1.8.4/Drivers/STM32F1xx_HAL_Driver/Src\stm32f1xx_hal_dma.c ****   {
 331:C:/Users/vovua/STM32Cube/Repository/STM32Cube_FW_F1_V1.8.4/Drivers/STM32F1xx_HAL_Driver/Src\stm32f1xx_hal_dma.c ****     /* Change DMA peripheral state */
 332:C:/Users/vovua/STM32Cube/Repository/STM32Cube_FW_F1_V1.8.4/Drivers/STM32F1xx_HAL_Driver/Src\stm32f1xx_hal_dma.c ****     hdma->State = HAL_DMA_STATE_BUSY;
 333:C:/Users/vovua/STM32Cube/Repository/STM32Cube_FW_F1_V1.8.4/Drivers/STM32F1xx_HAL_Driver/Src\stm32f1xx_hal_dma.c ****     hdma->ErrorCode = HAL_DMA_ERROR_NONE;
 334:C:/Users/vovua/STM32Cube/Repository/STM32Cube_FW_F1_V1.8.4/Drivers/STM32F1xx_HAL_Driver/Src\stm32f1xx_hal_dma.c ****             
 335:C:/Users/vovua/STM32Cube/Repository/STM32Cube_FW_F1_V1.8.4/Drivers/STM32F1xx_HAL_Driver/Src\stm32f1xx_hal_dma.c ****     /* Disable the peripheral */
 336:C:/Users/vovua/STM32Cube/Repository/STM32Cube_FW_F1_V1.8.4/Drivers/STM32F1xx_HAL_Driver/Src\stm32f1xx_hal_dma.c ****     __HAL_DMA_DISABLE(hdma);
 337:C:/Users/vovua/STM32Cube/Repository/STM32Cube_FW_F1_V1.8.4/Drivers/STM32F1xx_HAL_Driver/Src\stm32f1xx_hal_dma.c ****     
 338:C:/Users/vovua/STM32Cube/Repository/STM32Cube_FW_F1_V1.8.4/Drivers/STM32F1xx_HAL_Driver/Src\stm32f1xx_hal_dma.c ****     /* Configure the source, destination address and the data length & clear flags*/
 339:C:/Users/vovua/STM32Cube/Repository/STM32Cube_FW_F1_V1.8.4/Drivers/STM32F1xx_HAL_Driver/Src\stm32f1xx_hal_dma.c ****     DMA_SetConfig(hdma, SrcAddress, DstAddress, DataLength);
 340:C:/Users/vovua/STM32Cube/Repository/STM32Cube_FW_F1_V1.8.4/Drivers/STM32F1xx_HAL_Driver/Src\stm32f1xx_hal_dma.c ****     
 341:C:/Users/vovua/STM32Cube/Repository/STM32Cube_FW_F1_V1.8.4/Drivers/STM32F1xx_HAL_Driver/Src\stm32f1xx_hal_dma.c ****     /* Enable the Peripheral */
 342:C:/Users/vovua/STM32Cube/Repository/STM32Cube_FW_F1_V1.8.4/Drivers/STM32F1xx_HAL_Driver/Src\stm32f1xx_hal_dma.c ****     __HAL_DMA_ENABLE(hdma);
 343:C:/Users/vovua/STM32Cube/Repository/STM32Cube_FW_F1_V1.8.4/Drivers/STM32F1xx_HAL_Driver/Src\stm32f1xx_hal_dma.c ****   }
 344:C:/Users/vovua/STM32Cube/Repository/STM32Cube_FW_F1_V1.8.4/Drivers/STM32F1xx_HAL_Driver/Src\stm32f1xx_hal_dma.c ****   else
 345:C:/Users/vovua/STM32Cube/Repository/STM32Cube_FW_F1_V1.8.4/Drivers/STM32F1xx_HAL_Driver/Src\stm32f1xx_hal_dma.c ****   {
 346:C:/Users/vovua/STM32Cube/Repository/STM32Cube_FW_F1_V1.8.4/Drivers/STM32F1xx_HAL_Driver/Src\stm32f1xx_hal_dma.c ****    /* Process Unlocked */
 347:C:/Users/vovua/STM32Cube/Repository/STM32Cube_FW_F1_V1.8.4/Drivers/STM32F1xx_HAL_Driver/Src\stm32f1xx_hal_dma.c ****    __HAL_UNLOCK(hdma);  
 348:C:/Users/vovua/STM32Cube/Repository/STM32Cube_FW_F1_V1.8.4/Drivers/STM32F1xx_HAL_Driver/Src\stm32f1xx_hal_dma.c ****    status = HAL_BUSY;
 349:C:/Users/vovua/STM32Cube/Repository/STM32Cube_FW_F1_V1.8.4/Drivers/STM32F1xx_HAL_Driver/Src\stm32f1xx_hal_dma.c ****   }  
 350:C:/Users/vovua/STM32Cube/Repository/STM32Cube_FW_F1_V1.8.4/Drivers/STM32F1xx_HAL_Driver/Src\stm32f1xx_hal_dma.c ****   return status;
 351:C:/Users/vovua/STM32Cube/Repository/STM32Cube_FW_F1_V1.8.4/Drivers/STM32F1xx_HAL_Driver/Src\stm32f1xx_hal_dma.c **** }
 352:C:/Users/vovua/STM32Cube/Repository/STM32Cube_FW_F1_V1.8.4/Drivers/STM32F1xx_HAL_Driver/Src\stm32f1xx_hal_dma.c **** 
 353:C:/Users/vovua/STM32Cube/Repository/STM32Cube_FW_F1_V1.8.4/Drivers/STM32F1xx_HAL_Driver/Src\stm32f1xx_hal_dma.c **** /**
 354:C:/Users/vovua/STM32Cube/Repository/STM32Cube_FW_F1_V1.8.4/Drivers/STM32F1xx_HAL_Driver/Src\stm32f1xx_hal_dma.c ****   * @brief  Start the DMA Transfer with interrupt enabled.
 355:C:/Users/vovua/STM32Cube/Repository/STM32Cube_FW_F1_V1.8.4/Drivers/STM32F1xx_HAL_Driver/Src\stm32f1xx_hal_dma.c ****   * @param  hdma: pointer to a DMA_HandleTypeDef structure that contains
 356:C:/Users/vovua/STM32Cube/Repository/STM32Cube_FW_F1_V1.8.4/Drivers/STM32F1xx_HAL_Driver/Src\stm32f1xx_hal_dma.c ****   *               the configuration information for the specified DMA Channel.
 357:C:/Users/vovua/STM32Cube/Repository/STM32Cube_FW_F1_V1.8.4/Drivers/STM32F1xx_HAL_Driver/Src\stm32f1xx_hal_dma.c ****   * @param  SrcAddress: The source memory Buffer address
 358:C:/Users/vovua/STM32Cube/Repository/STM32Cube_FW_F1_V1.8.4/Drivers/STM32F1xx_HAL_Driver/Src\stm32f1xx_hal_dma.c ****   * @param  DstAddress: The destination memory Buffer address
 359:C:/Users/vovua/STM32Cube/Repository/STM32Cube_FW_F1_V1.8.4/Drivers/STM32F1xx_HAL_Driver/Src\stm32f1xx_hal_dma.c ****   * @param  DataLength: The length of data to be transferred from source to destination
 360:C:/Users/vovua/STM32Cube/Repository/STM32Cube_FW_F1_V1.8.4/Drivers/STM32F1xx_HAL_Driver/Src\stm32f1xx_hal_dma.c ****   * @retval HAL status
 361:C:/Users/vovua/STM32Cube/Repository/STM32Cube_FW_F1_V1.8.4/Drivers/STM32F1xx_HAL_Driver/Src\stm32f1xx_hal_dma.c ****   */
 362:C:/Users/vovua/STM32Cube/Repository/STM32Cube_FW_F1_V1.8.4/Drivers/STM32F1xx_HAL_Driver/Src\stm32f1xx_hal_dma.c **** HAL_StatusTypeDef HAL_DMA_Start_IT(DMA_HandleTypeDef *hdma, uint32_t SrcAddress, uint32_t DstAddres
 363:C:/Users/vovua/STM32Cube/Repository/STM32Cube_FW_F1_V1.8.4/Drivers/STM32F1xx_HAL_Driver/Src\stm32f1xx_hal_dma.c **** {
 364:C:/Users/vovua/STM32Cube/Repository/STM32Cube_FW_F1_V1.8.4/Drivers/STM32F1xx_HAL_Driver/Src\stm32f1xx_hal_dma.c ****   HAL_StatusTypeDef status = HAL_OK;
 365:C:/Users/vovua/STM32Cube/Repository/STM32Cube_FW_F1_V1.8.4/Drivers/STM32F1xx_HAL_Driver/Src\stm32f1xx_hal_dma.c **** 
 366:C:/Users/vovua/STM32Cube/Repository/STM32Cube_FW_F1_V1.8.4/Drivers/STM32F1xx_HAL_Driver/Src\stm32f1xx_hal_dma.c ****   /* Check the parameters */
 367:C:/Users/vovua/STM32Cube/Repository/STM32Cube_FW_F1_V1.8.4/Drivers/STM32F1xx_HAL_Driver/Src\stm32f1xx_hal_dma.c ****   assert_param(IS_DMA_BUFFER_SIZE(DataLength));
 368:C:/Users/vovua/STM32Cube/Repository/STM32Cube_FW_F1_V1.8.4/Drivers/STM32F1xx_HAL_Driver/Src\stm32f1xx_hal_dma.c **** 
 369:C:/Users/vovua/STM32Cube/Repository/STM32Cube_FW_F1_V1.8.4/Drivers/STM32F1xx_HAL_Driver/Src\stm32f1xx_hal_dma.c ****   /* Process locked */
 370:C:/Users/vovua/STM32Cube/Repository/STM32Cube_FW_F1_V1.8.4/Drivers/STM32F1xx_HAL_Driver/Src\stm32f1xx_hal_dma.c ****   __HAL_LOCK(hdma);
 371:C:/Users/vovua/STM32Cube/Repository/STM32Cube_FW_F1_V1.8.4/Drivers/STM32F1xx_HAL_Driver/Src\stm32f1xx_hal_dma.c ****   
 372:C:/Users/vovua/STM32Cube/Repository/STM32Cube_FW_F1_V1.8.4/Drivers/STM32F1xx_HAL_Driver/Src\stm32f1xx_hal_dma.c ****   if(HAL_DMA_STATE_READY == hdma->State)
 373:C:/Users/vovua/STM32Cube/Repository/STM32Cube_FW_F1_V1.8.4/Drivers/STM32F1xx_HAL_Driver/Src\stm32f1xx_hal_dma.c ****   {
 374:C:/Users/vovua/STM32Cube/Repository/STM32Cube_FW_F1_V1.8.4/Drivers/STM32F1xx_HAL_Driver/Src\stm32f1xx_hal_dma.c ****     /* Change DMA peripheral state */
ARM GAS  C:\Users\vovua\AppData\Local\Temp\cc7FFceq.s 			page 8


 375:C:/Users/vovua/STM32Cube/Repository/STM32Cube_FW_F1_V1.8.4/Drivers/STM32F1xx_HAL_Driver/Src\stm32f1xx_hal_dma.c ****     hdma->State = HAL_DMA_STATE_BUSY;
 376:C:/Users/vovua/STM32Cube/Repository/STM32Cube_FW_F1_V1.8.4/Drivers/STM32F1xx_HAL_Driver/Src\stm32f1xx_hal_dma.c ****     hdma->ErrorCode = HAL_DMA_ERROR_NONE;
 377:C:/Users/vovua/STM32Cube/Repository/STM32Cube_FW_F1_V1.8.4/Drivers/STM32F1xx_HAL_Driver/Src\stm32f1xx_hal_dma.c ****     
 378:C:/Users/vovua/STM32Cube/Repository/STM32Cube_FW_F1_V1.8.4/Drivers/STM32F1xx_HAL_Driver/Src\stm32f1xx_hal_dma.c ****     /* Disable the peripheral */
 379:C:/Users/vovua/STM32Cube/Repository/STM32Cube_FW_F1_V1.8.4/Drivers/STM32F1xx_HAL_Driver/Src\stm32f1xx_hal_dma.c ****     __HAL_DMA_DISABLE(hdma);
 380:C:/Users/vovua/STM32Cube/Repository/STM32Cube_FW_F1_V1.8.4/Drivers/STM32F1xx_HAL_Driver/Src\stm32f1xx_hal_dma.c ****     
 381:C:/Users/vovua/STM32Cube/Repository/STM32Cube_FW_F1_V1.8.4/Drivers/STM32F1xx_HAL_Driver/Src\stm32f1xx_hal_dma.c ****     /* Configure the source, destination address and the data length & clear flags*/
 382:C:/Users/vovua/STM32Cube/Repository/STM32Cube_FW_F1_V1.8.4/Drivers/STM32F1xx_HAL_Driver/Src\stm32f1xx_hal_dma.c ****     DMA_SetConfig(hdma, SrcAddress, DstAddress, DataLength);
 383:C:/Users/vovua/STM32Cube/Repository/STM32Cube_FW_F1_V1.8.4/Drivers/STM32F1xx_HAL_Driver/Src\stm32f1xx_hal_dma.c ****     
 384:C:/Users/vovua/STM32Cube/Repository/STM32Cube_FW_F1_V1.8.4/Drivers/STM32F1xx_HAL_Driver/Src\stm32f1xx_hal_dma.c ****     /* Enable the transfer complete interrupt */
 385:C:/Users/vovua/STM32Cube/Repository/STM32Cube_FW_F1_V1.8.4/Drivers/STM32F1xx_HAL_Driver/Src\stm32f1xx_hal_dma.c ****     /* Enable the transfer Error interrupt */
 386:C:/Users/vovua/STM32Cube/Repository/STM32Cube_FW_F1_V1.8.4/Drivers/STM32F1xx_HAL_Driver/Src\stm32f1xx_hal_dma.c ****     if(NULL != hdma->XferHalfCpltCallback)
 387:C:/Users/vovua/STM32Cube/Repository/STM32Cube_FW_F1_V1.8.4/Drivers/STM32F1xx_HAL_Driver/Src\stm32f1xx_hal_dma.c ****     {
 388:C:/Users/vovua/STM32Cube/Repository/STM32Cube_FW_F1_V1.8.4/Drivers/STM32F1xx_HAL_Driver/Src\stm32f1xx_hal_dma.c ****       /* Enable the Half transfer complete interrupt as well */
 389:C:/Users/vovua/STM32Cube/Repository/STM32Cube_FW_F1_V1.8.4/Drivers/STM32F1xx_HAL_Driver/Src\stm32f1xx_hal_dma.c ****       __HAL_DMA_ENABLE_IT(hdma, (DMA_IT_TC | DMA_IT_HT | DMA_IT_TE));
 390:C:/Users/vovua/STM32Cube/Repository/STM32Cube_FW_F1_V1.8.4/Drivers/STM32F1xx_HAL_Driver/Src\stm32f1xx_hal_dma.c ****     }
 391:C:/Users/vovua/STM32Cube/Repository/STM32Cube_FW_F1_V1.8.4/Drivers/STM32F1xx_HAL_Driver/Src\stm32f1xx_hal_dma.c ****     else
 392:C:/Users/vovua/STM32Cube/Repository/STM32Cube_FW_F1_V1.8.4/Drivers/STM32F1xx_HAL_Driver/Src\stm32f1xx_hal_dma.c ****     {
 393:C:/Users/vovua/STM32Cube/Repository/STM32Cube_FW_F1_V1.8.4/Drivers/STM32F1xx_HAL_Driver/Src\stm32f1xx_hal_dma.c ****       __HAL_DMA_DISABLE_IT(hdma, DMA_IT_HT);
 394:C:/Users/vovua/STM32Cube/Repository/STM32Cube_FW_F1_V1.8.4/Drivers/STM32F1xx_HAL_Driver/Src\stm32f1xx_hal_dma.c ****       __HAL_DMA_ENABLE_IT(hdma, (DMA_IT_TC | DMA_IT_TE));
 395:C:/Users/vovua/STM32Cube/Repository/STM32Cube_FW_F1_V1.8.4/Drivers/STM32F1xx_HAL_Driver/Src\stm32f1xx_hal_dma.c ****     }
 396:C:/Users/vovua/STM32Cube/Repository/STM32Cube_FW_F1_V1.8.4/Drivers/STM32F1xx_HAL_Driver/Src\stm32f1xx_hal_dma.c ****     /* Enable the Peripheral */
 397:C:/Users/vovua/STM32Cube/Repository/STM32Cube_FW_F1_V1.8.4/Drivers/STM32F1xx_HAL_Driver/Src\stm32f1xx_hal_dma.c ****     __HAL_DMA_ENABLE(hdma);
 398:C:/Users/vovua/STM32Cube/Repository/STM32Cube_FW_F1_V1.8.4/Drivers/STM32F1xx_HAL_Driver/Src\stm32f1xx_hal_dma.c ****   }
 399:C:/Users/vovua/STM32Cube/Repository/STM32Cube_FW_F1_V1.8.4/Drivers/STM32F1xx_HAL_Driver/Src\stm32f1xx_hal_dma.c ****   else
 400:C:/Users/vovua/STM32Cube/Repository/STM32Cube_FW_F1_V1.8.4/Drivers/STM32F1xx_HAL_Driver/Src\stm32f1xx_hal_dma.c ****   {      
 401:C:/Users/vovua/STM32Cube/Repository/STM32Cube_FW_F1_V1.8.4/Drivers/STM32F1xx_HAL_Driver/Src\stm32f1xx_hal_dma.c ****     /* Process Unlocked */
 402:C:/Users/vovua/STM32Cube/Repository/STM32Cube_FW_F1_V1.8.4/Drivers/STM32F1xx_HAL_Driver/Src\stm32f1xx_hal_dma.c ****     __HAL_UNLOCK(hdma); 
 403:C:/Users/vovua/STM32Cube/Repository/STM32Cube_FW_F1_V1.8.4/Drivers/STM32F1xx_HAL_Driver/Src\stm32f1xx_hal_dma.c **** 
 404:C:/Users/vovua/STM32Cube/Repository/STM32Cube_FW_F1_V1.8.4/Drivers/STM32F1xx_HAL_Driver/Src\stm32f1xx_hal_dma.c ****     /* Remain BUSY */
 405:C:/Users/vovua/STM32Cube/Repository/STM32Cube_FW_F1_V1.8.4/Drivers/STM32F1xx_HAL_Driver/Src\stm32f1xx_hal_dma.c ****     status = HAL_BUSY;
 406:C:/Users/vovua/STM32Cube/Repository/STM32Cube_FW_F1_V1.8.4/Drivers/STM32F1xx_HAL_Driver/Src\stm32f1xx_hal_dma.c ****   }    
 407:C:/Users/vovua/STM32Cube/Repository/STM32Cube_FW_F1_V1.8.4/Drivers/STM32F1xx_HAL_Driver/Src\stm32f1xx_hal_dma.c ****   return status;
 408:C:/Users/vovua/STM32Cube/Repository/STM32Cube_FW_F1_V1.8.4/Drivers/STM32F1xx_HAL_Driver/Src\stm32f1xx_hal_dma.c **** }
 409:C:/Users/vovua/STM32Cube/Repository/STM32Cube_FW_F1_V1.8.4/Drivers/STM32F1xx_HAL_Driver/Src\stm32f1xx_hal_dma.c **** 
 410:C:/Users/vovua/STM32Cube/Repository/STM32Cube_FW_F1_V1.8.4/Drivers/STM32F1xx_HAL_Driver/Src\stm32f1xx_hal_dma.c **** /**
 411:C:/Users/vovua/STM32Cube/Repository/STM32Cube_FW_F1_V1.8.4/Drivers/STM32F1xx_HAL_Driver/Src\stm32f1xx_hal_dma.c ****   * @brief  Abort the DMA Transfer.
 412:C:/Users/vovua/STM32Cube/Repository/STM32Cube_FW_F1_V1.8.4/Drivers/STM32F1xx_HAL_Driver/Src\stm32f1xx_hal_dma.c ****   * @param  hdma: pointer to a DMA_HandleTypeDef structure that contains
 413:C:/Users/vovua/STM32Cube/Repository/STM32Cube_FW_F1_V1.8.4/Drivers/STM32F1xx_HAL_Driver/Src\stm32f1xx_hal_dma.c ****   *               the configuration information for the specified DMA Channel.
 414:C:/Users/vovua/STM32Cube/Repository/STM32Cube_FW_F1_V1.8.4/Drivers/STM32F1xx_HAL_Driver/Src\stm32f1xx_hal_dma.c ****   * @retval HAL status
 415:C:/Users/vovua/STM32Cube/Repository/STM32Cube_FW_F1_V1.8.4/Drivers/STM32F1xx_HAL_Driver/Src\stm32f1xx_hal_dma.c ****   */
 416:C:/Users/vovua/STM32Cube/Repository/STM32Cube_FW_F1_V1.8.4/Drivers/STM32F1xx_HAL_Driver/Src\stm32f1xx_hal_dma.c **** HAL_StatusTypeDef HAL_DMA_Abort(DMA_HandleTypeDef *hdma)
 417:C:/Users/vovua/STM32Cube/Repository/STM32Cube_FW_F1_V1.8.4/Drivers/STM32F1xx_HAL_Driver/Src\stm32f1xx_hal_dma.c **** {
 418:C:/Users/vovua/STM32Cube/Repository/STM32Cube_FW_F1_V1.8.4/Drivers/STM32F1xx_HAL_Driver/Src\stm32f1xx_hal_dma.c ****   HAL_StatusTypeDef status = HAL_OK;
 419:C:/Users/vovua/STM32Cube/Repository/STM32Cube_FW_F1_V1.8.4/Drivers/STM32F1xx_HAL_Driver/Src\stm32f1xx_hal_dma.c ****   
 420:C:/Users/vovua/STM32Cube/Repository/STM32Cube_FW_F1_V1.8.4/Drivers/STM32F1xx_HAL_Driver/Src\stm32f1xx_hal_dma.c ****   if(hdma->State != HAL_DMA_STATE_BUSY)
 421:C:/Users/vovua/STM32Cube/Repository/STM32Cube_FW_F1_V1.8.4/Drivers/STM32F1xx_HAL_Driver/Src\stm32f1xx_hal_dma.c ****   {
 422:C:/Users/vovua/STM32Cube/Repository/STM32Cube_FW_F1_V1.8.4/Drivers/STM32F1xx_HAL_Driver/Src\stm32f1xx_hal_dma.c ****     /* no transfer ongoing */
 423:C:/Users/vovua/STM32Cube/Repository/STM32Cube_FW_F1_V1.8.4/Drivers/STM32F1xx_HAL_Driver/Src\stm32f1xx_hal_dma.c ****     hdma->ErrorCode = HAL_DMA_ERROR_NO_XFER;
 424:C:/Users/vovua/STM32Cube/Repository/STM32Cube_FW_F1_V1.8.4/Drivers/STM32F1xx_HAL_Driver/Src\stm32f1xx_hal_dma.c ****     
 425:C:/Users/vovua/STM32Cube/Repository/STM32Cube_FW_F1_V1.8.4/Drivers/STM32F1xx_HAL_Driver/Src\stm32f1xx_hal_dma.c ****     /* Process Unlocked */
 426:C:/Users/vovua/STM32Cube/Repository/STM32Cube_FW_F1_V1.8.4/Drivers/STM32F1xx_HAL_Driver/Src\stm32f1xx_hal_dma.c ****     __HAL_UNLOCK(hdma);
 427:C:/Users/vovua/STM32Cube/Repository/STM32Cube_FW_F1_V1.8.4/Drivers/STM32F1xx_HAL_Driver/Src\stm32f1xx_hal_dma.c ****     
 428:C:/Users/vovua/STM32Cube/Repository/STM32Cube_FW_F1_V1.8.4/Drivers/STM32F1xx_HAL_Driver/Src\stm32f1xx_hal_dma.c ****     return HAL_ERROR;
 429:C:/Users/vovua/STM32Cube/Repository/STM32Cube_FW_F1_V1.8.4/Drivers/STM32F1xx_HAL_Driver/Src\stm32f1xx_hal_dma.c ****   }
 430:C:/Users/vovua/STM32Cube/Repository/STM32Cube_FW_F1_V1.8.4/Drivers/STM32F1xx_HAL_Driver/Src\stm32f1xx_hal_dma.c ****   else
 431:C:/Users/vovua/STM32Cube/Repository/STM32Cube_FW_F1_V1.8.4/Drivers/STM32F1xx_HAL_Driver/Src\stm32f1xx_hal_dma.c **** 
ARM GAS  C:\Users\vovua\AppData\Local\Temp\cc7FFceq.s 			page 9


 432:C:/Users/vovua/STM32Cube/Repository/STM32Cube_FW_F1_V1.8.4/Drivers/STM32F1xx_HAL_Driver/Src\stm32f1xx_hal_dma.c ****   {
 433:C:/Users/vovua/STM32Cube/Repository/STM32Cube_FW_F1_V1.8.4/Drivers/STM32F1xx_HAL_Driver/Src\stm32f1xx_hal_dma.c ****     /* Disable DMA IT */
 434:C:/Users/vovua/STM32Cube/Repository/STM32Cube_FW_F1_V1.8.4/Drivers/STM32F1xx_HAL_Driver/Src\stm32f1xx_hal_dma.c ****     __HAL_DMA_DISABLE_IT(hdma, (DMA_IT_TC | DMA_IT_HT | DMA_IT_TE));
 435:C:/Users/vovua/STM32Cube/Repository/STM32Cube_FW_F1_V1.8.4/Drivers/STM32F1xx_HAL_Driver/Src\stm32f1xx_hal_dma.c ****       
 436:C:/Users/vovua/STM32Cube/Repository/STM32Cube_FW_F1_V1.8.4/Drivers/STM32F1xx_HAL_Driver/Src\stm32f1xx_hal_dma.c ****     /* Disable the channel */
 437:C:/Users/vovua/STM32Cube/Repository/STM32Cube_FW_F1_V1.8.4/Drivers/STM32F1xx_HAL_Driver/Src\stm32f1xx_hal_dma.c ****     __HAL_DMA_DISABLE(hdma);
 438:C:/Users/vovua/STM32Cube/Repository/STM32Cube_FW_F1_V1.8.4/Drivers/STM32F1xx_HAL_Driver/Src\stm32f1xx_hal_dma.c ****       
 439:C:/Users/vovua/STM32Cube/Repository/STM32Cube_FW_F1_V1.8.4/Drivers/STM32F1xx_HAL_Driver/Src\stm32f1xx_hal_dma.c ****     /* Clear all flags */
 440:C:/Users/vovua/STM32Cube/Repository/STM32Cube_FW_F1_V1.8.4/Drivers/STM32F1xx_HAL_Driver/Src\stm32f1xx_hal_dma.c ****     hdma->DmaBaseAddress->IFCR = (DMA_ISR_GIF1 << hdma->ChannelIndex);
 441:C:/Users/vovua/STM32Cube/Repository/STM32Cube_FW_F1_V1.8.4/Drivers/STM32F1xx_HAL_Driver/Src\stm32f1xx_hal_dma.c ****   }
 442:C:/Users/vovua/STM32Cube/Repository/STM32Cube_FW_F1_V1.8.4/Drivers/STM32F1xx_HAL_Driver/Src\stm32f1xx_hal_dma.c ****   /* Change the DMA state */
 443:C:/Users/vovua/STM32Cube/Repository/STM32Cube_FW_F1_V1.8.4/Drivers/STM32F1xx_HAL_Driver/Src\stm32f1xx_hal_dma.c ****   hdma->State = HAL_DMA_STATE_READY;
 444:C:/Users/vovua/STM32Cube/Repository/STM32Cube_FW_F1_V1.8.4/Drivers/STM32F1xx_HAL_Driver/Src\stm32f1xx_hal_dma.c **** 
 445:C:/Users/vovua/STM32Cube/Repository/STM32Cube_FW_F1_V1.8.4/Drivers/STM32F1xx_HAL_Driver/Src\stm32f1xx_hal_dma.c ****   /* Process Unlocked */
 446:C:/Users/vovua/STM32Cube/Repository/STM32Cube_FW_F1_V1.8.4/Drivers/STM32F1xx_HAL_Driver/Src\stm32f1xx_hal_dma.c ****   __HAL_UNLOCK(hdma);      
 447:C:/Users/vovua/STM32Cube/Repository/STM32Cube_FW_F1_V1.8.4/Drivers/STM32F1xx_HAL_Driver/Src\stm32f1xx_hal_dma.c ****   
 448:C:/Users/vovua/STM32Cube/Repository/STM32Cube_FW_F1_V1.8.4/Drivers/STM32F1xx_HAL_Driver/Src\stm32f1xx_hal_dma.c ****   return status; 
 449:C:/Users/vovua/STM32Cube/Repository/STM32Cube_FW_F1_V1.8.4/Drivers/STM32F1xx_HAL_Driver/Src\stm32f1xx_hal_dma.c **** }
 450:C:/Users/vovua/STM32Cube/Repository/STM32Cube_FW_F1_V1.8.4/Drivers/STM32F1xx_HAL_Driver/Src\stm32f1xx_hal_dma.c **** 
 451:C:/Users/vovua/STM32Cube/Repository/STM32Cube_FW_F1_V1.8.4/Drivers/STM32F1xx_HAL_Driver/Src\stm32f1xx_hal_dma.c **** /**
 452:C:/Users/vovua/STM32Cube/Repository/STM32Cube_FW_F1_V1.8.4/Drivers/STM32F1xx_HAL_Driver/Src\stm32f1xx_hal_dma.c ****   * @brief  Aborts the DMA Transfer in Interrupt mode.
 453:C:/Users/vovua/STM32Cube/Repository/STM32Cube_FW_F1_V1.8.4/Drivers/STM32F1xx_HAL_Driver/Src\stm32f1xx_hal_dma.c ****   * @param  hdma  : pointer to a DMA_HandleTypeDef structure that contains
 454:C:/Users/vovua/STM32Cube/Repository/STM32Cube_FW_F1_V1.8.4/Drivers/STM32F1xx_HAL_Driver/Src\stm32f1xx_hal_dma.c ****   *                 the configuration information for the specified DMA Channel.
 455:C:/Users/vovua/STM32Cube/Repository/STM32Cube_FW_F1_V1.8.4/Drivers/STM32F1xx_HAL_Driver/Src\stm32f1xx_hal_dma.c ****   * @retval HAL status
 456:C:/Users/vovua/STM32Cube/Repository/STM32Cube_FW_F1_V1.8.4/Drivers/STM32F1xx_HAL_Driver/Src\stm32f1xx_hal_dma.c ****   */
 457:C:/Users/vovua/STM32Cube/Repository/STM32Cube_FW_F1_V1.8.4/Drivers/STM32F1xx_HAL_Driver/Src\stm32f1xx_hal_dma.c **** HAL_StatusTypeDef HAL_DMA_Abort_IT(DMA_HandleTypeDef *hdma)
 458:C:/Users/vovua/STM32Cube/Repository/STM32Cube_FW_F1_V1.8.4/Drivers/STM32F1xx_HAL_Driver/Src\stm32f1xx_hal_dma.c **** {  
 459:C:/Users/vovua/STM32Cube/Repository/STM32Cube_FW_F1_V1.8.4/Drivers/STM32F1xx_HAL_Driver/Src\stm32f1xx_hal_dma.c ****   HAL_StatusTypeDef status = HAL_OK;
 460:C:/Users/vovua/STM32Cube/Repository/STM32Cube_FW_F1_V1.8.4/Drivers/STM32F1xx_HAL_Driver/Src\stm32f1xx_hal_dma.c ****   
 461:C:/Users/vovua/STM32Cube/Repository/STM32Cube_FW_F1_V1.8.4/Drivers/STM32F1xx_HAL_Driver/Src\stm32f1xx_hal_dma.c ****   if(HAL_DMA_STATE_BUSY != hdma->State)
 462:C:/Users/vovua/STM32Cube/Repository/STM32Cube_FW_F1_V1.8.4/Drivers/STM32F1xx_HAL_Driver/Src\stm32f1xx_hal_dma.c ****   {
 463:C:/Users/vovua/STM32Cube/Repository/STM32Cube_FW_F1_V1.8.4/Drivers/STM32F1xx_HAL_Driver/Src\stm32f1xx_hal_dma.c ****     /* no transfer ongoing */
 464:C:/Users/vovua/STM32Cube/Repository/STM32Cube_FW_F1_V1.8.4/Drivers/STM32F1xx_HAL_Driver/Src\stm32f1xx_hal_dma.c ****     hdma->ErrorCode = HAL_DMA_ERROR_NO_XFER;
 465:C:/Users/vovua/STM32Cube/Repository/STM32Cube_FW_F1_V1.8.4/Drivers/STM32F1xx_HAL_Driver/Src\stm32f1xx_hal_dma.c ****         
 466:C:/Users/vovua/STM32Cube/Repository/STM32Cube_FW_F1_V1.8.4/Drivers/STM32F1xx_HAL_Driver/Src\stm32f1xx_hal_dma.c ****     status = HAL_ERROR;
 467:C:/Users/vovua/STM32Cube/Repository/STM32Cube_FW_F1_V1.8.4/Drivers/STM32F1xx_HAL_Driver/Src\stm32f1xx_hal_dma.c ****   }
 468:C:/Users/vovua/STM32Cube/Repository/STM32Cube_FW_F1_V1.8.4/Drivers/STM32F1xx_HAL_Driver/Src\stm32f1xx_hal_dma.c ****   else
 469:C:/Users/vovua/STM32Cube/Repository/STM32Cube_FW_F1_V1.8.4/Drivers/STM32F1xx_HAL_Driver/Src\stm32f1xx_hal_dma.c ****   { 
 470:C:/Users/vovua/STM32Cube/Repository/STM32Cube_FW_F1_V1.8.4/Drivers/STM32F1xx_HAL_Driver/Src\stm32f1xx_hal_dma.c ****     /* Disable DMA IT */
 471:C:/Users/vovua/STM32Cube/Repository/STM32Cube_FW_F1_V1.8.4/Drivers/STM32F1xx_HAL_Driver/Src\stm32f1xx_hal_dma.c ****     __HAL_DMA_DISABLE_IT(hdma, (DMA_IT_TC | DMA_IT_HT | DMA_IT_TE));
 472:C:/Users/vovua/STM32Cube/Repository/STM32Cube_FW_F1_V1.8.4/Drivers/STM32F1xx_HAL_Driver/Src\stm32f1xx_hal_dma.c **** 
 473:C:/Users/vovua/STM32Cube/Repository/STM32Cube_FW_F1_V1.8.4/Drivers/STM32F1xx_HAL_Driver/Src\stm32f1xx_hal_dma.c ****     /* Disable the channel */
 474:C:/Users/vovua/STM32Cube/Repository/STM32Cube_FW_F1_V1.8.4/Drivers/STM32F1xx_HAL_Driver/Src\stm32f1xx_hal_dma.c ****     __HAL_DMA_DISABLE(hdma);
 475:C:/Users/vovua/STM32Cube/Repository/STM32Cube_FW_F1_V1.8.4/Drivers/STM32F1xx_HAL_Driver/Src\stm32f1xx_hal_dma.c **** 
 476:C:/Users/vovua/STM32Cube/Repository/STM32Cube_FW_F1_V1.8.4/Drivers/STM32F1xx_HAL_Driver/Src\stm32f1xx_hal_dma.c ****     /* Clear all flags */
 477:C:/Users/vovua/STM32Cube/Repository/STM32Cube_FW_F1_V1.8.4/Drivers/STM32F1xx_HAL_Driver/Src\stm32f1xx_hal_dma.c ****     __HAL_DMA_CLEAR_FLAG(hdma, __HAL_DMA_GET_GI_FLAG_INDEX(hdma));
 478:C:/Users/vovua/STM32Cube/Repository/STM32Cube_FW_F1_V1.8.4/Drivers/STM32F1xx_HAL_Driver/Src\stm32f1xx_hal_dma.c **** 
 479:C:/Users/vovua/STM32Cube/Repository/STM32Cube_FW_F1_V1.8.4/Drivers/STM32F1xx_HAL_Driver/Src\stm32f1xx_hal_dma.c ****     /* Change the DMA state */
 480:C:/Users/vovua/STM32Cube/Repository/STM32Cube_FW_F1_V1.8.4/Drivers/STM32F1xx_HAL_Driver/Src\stm32f1xx_hal_dma.c ****     hdma->State = HAL_DMA_STATE_READY;
 481:C:/Users/vovua/STM32Cube/Repository/STM32Cube_FW_F1_V1.8.4/Drivers/STM32F1xx_HAL_Driver/Src\stm32f1xx_hal_dma.c **** 
 482:C:/Users/vovua/STM32Cube/Repository/STM32Cube_FW_F1_V1.8.4/Drivers/STM32F1xx_HAL_Driver/Src\stm32f1xx_hal_dma.c ****     /* Process Unlocked */
 483:C:/Users/vovua/STM32Cube/Repository/STM32Cube_FW_F1_V1.8.4/Drivers/STM32F1xx_HAL_Driver/Src\stm32f1xx_hal_dma.c ****     __HAL_UNLOCK(hdma);
 484:C:/Users/vovua/STM32Cube/Repository/STM32Cube_FW_F1_V1.8.4/Drivers/STM32F1xx_HAL_Driver/Src\stm32f1xx_hal_dma.c **** 
 485:C:/Users/vovua/STM32Cube/Repository/STM32Cube_FW_F1_V1.8.4/Drivers/STM32F1xx_HAL_Driver/Src\stm32f1xx_hal_dma.c ****     /* Call User Abort callback */
 486:C:/Users/vovua/STM32Cube/Repository/STM32Cube_FW_F1_V1.8.4/Drivers/STM32F1xx_HAL_Driver/Src\stm32f1xx_hal_dma.c ****     if(hdma->XferAbortCallback != NULL)
 487:C:/Users/vovua/STM32Cube/Repository/STM32Cube_FW_F1_V1.8.4/Drivers/STM32F1xx_HAL_Driver/Src\stm32f1xx_hal_dma.c ****     {
 488:C:/Users/vovua/STM32Cube/Repository/STM32Cube_FW_F1_V1.8.4/Drivers/STM32F1xx_HAL_Driver/Src\stm32f1xx_hal_dma.c ****       hdma->XferAbortCallback(hdma);
ARM GAS  C:\Users\vovua\AppData\Local\Temp\cc7FFceq.s 			page 10


 489:C:/Users/vovua/STM32Cube/Repository/STM32Cube_FW_F1_V1.8.4/Drivers/STM32F1xx_HAL_Driver/Src\stm32f1xx_hal_dma.c ****     } 
 490:C:/Users/vovua/STM32Cube/Repository/STM32Cube_FW_F1_V1.8.4/Drivers/STM32F1xx_HAL_Driver/Src\stm32f1xx_hal_dma.c ****   }
 491:C:/Users/vovua/STM32Cube/Repository/STM32Cube_FW_F1_V1.8.4/Drivers/STM32F1xx_HAL_Driver/Src\stm32f1xx_hal_dma.c ****   return status;
 492:C:/Users/vovua/STM32Cube/Repository/STM32Cube_FW_F1_V1.8.4/Drivers/STM32F1xx_HAL_Driver/Src\stm32f1xx_hal_dma.c **** }
 493:C:/Users/vovua/STM32Cube/Repository/STM32Cube_FW_F1_V1.8.4/Drivers/STM32F1xx_HAL_Driver/Src\stm32f1xx_hal_dma.c **** 
 494:C:/Users/vovua/STM32Cube/Repository/STM32Cube_FW_F1_V1.8.4/Drivers/STM32F1xx_HAL_Driver/Src\stm32f1xx_hal_dma.c **** /**
 495:C:/Users/vovua/STM32Cube/Repository/STM32Cube_FW_F1_V1.8.4/Drivers/STM32F1xx_HAL_Driver/Src\stm32f1xx_hal_dma.c ****   * @brief  Polling for transfer complete.
 496:C:/Users/vovua/STM32Cube/Repository/STM32Cube_FW_F1_V1.8.4/Drivers/STM32F1xx_HAL_Driver/Src\stm32f1xx_hal_dma.c ****   * @param  hdma:    pointer to a DMA_HandleTypeDef structure that contains
 497:C:/Users/vovua/STM32Cube/Repository/STM32Cube_FW_F1_V1.8.4/Drivers/STM32F1xx_HAL_Driver/Src\stm32f1xx_hal_dma.c ****   *                  the configuration information for the specified DMA Channel.
 498:C:/Users/vovua/STM32Cube/Repository/STM32Cube_FW_F1_V1.8.4/Drivers/STM32F1xx_HAL_Driver/Src\stm32f1xx_hal_dma.c ****   * @param  CompleteLevel: Specifies the DMA level complete.
 499:C:/Users/vovua/STM32Cube/Repository/STM32Cube_FW_F1_V1.8.4/Drivers/STM32F1xx_HAL_Driver/Src\stm32f1xx_hal_dma.c ****   * @param  Timeout:       Timeout duration.
 500:C:/Users/vovua/STM32Cube/Repository/STM32Cube_FW_F1_V1.8.4/Drivers/STM32F1xx_HAL_Driver/Src\stm32f1xx_hal_dma.c ****   * @retval HAL status
 501:C:/Users/vovua/STM32Cube/Repository/STM32Cube_FW_F1_V1.8.4/Drivers/STM32F1xx_HAL_Driver/Src\stm32f1xx_hal_dma.c ****   */
 502:C:/Users/vovua/STM32Cube/Repository/STM32Cube_FW_F1_V1.8.4/Drivers/STM32F1xx_HAL_Driver/Src\stm32f1xx_hal_dma.c **** HAL_StatusTypeDef HAL_DMA_PollForTransfer(DMA_HandleTypeDef *hdma, uint32_t CompleteLevel, uint32_t
 503:C:/Users/vovua/STM32Cube/Repository/STM32Cube_FW_F1_V1.8.4/Drivers/STM32F1xx_HAL_Driver/Src\stm32f1xx_hal_dma.c **** {
 504:C:/Users/vovua/STM32Cube/Repository/STM32Cube_FW_F1_V1.8.4/Drivers/STM32F1xx_HAL_Driver/Src\stm32f1xx_hal_dma.c ****   uint32_t temp;
 505:C:/Users/vovua/STM32Cube/Repository/STM32Cube_FW_F1_V1.8.4/Drivers/STM32F1xx_HAL_Driver/Src\stm32f1xx_hal_dma.c ****   uint32_t tickstart = 0U;
 506:C:/Users/vovua/STM32Cube/Repository/STM32Cube_FW_F1_V1.8.4/Drivers/STM32F1xx_HAL_Driver/Src\stm32f1xx_hal_dma.c **** 
 507:C:/Users/vovua/STM32Cube/Repository/STM32Cube_FW_F1_V1.8.4/Drivers/STM32F1xx_HAL_Driver/Src\stm32f1xx_hal_dma.c ****   if(HAL_DMA_STATE_BUSY != hdma->State)
 508:C:/Users/vovua/STM32Cube/Repository/STM32Cube_FW_F1_V1.8.4/Drivers/STM32F1xx_HAL_Driver/Src\stm32f1xx_hal_dma.c ****   {
 509:C:/Users/vovua/STM32Cube/Repository/STM32Cube_FW_F1_V1.8.4/Drivers/STM32F1xx_HAL_Driver/Src\stm32f1xx_hal_dma.c ****     /* no transfer ongoing */
 510:C:/Users/vovua/STM32Cube/Repository/STM32Cube_FW_F1_V1.8.4/Drivers/STM32F1xx_HAL_Driver/Src\stm32f1xx_hal_dma.c ****     hdma->ErrorCode = HAL_DMA_ERROR_NO_XFER;
 511:C:/Users/vovua/STM32Cube/Repository/STM32Cube_FW_F1_V1.8.4/Drivers/STM32F1xx_HAL_Driver/Src\stm32f1xx_hal_dma.c ****     __HAL_UNLOCK(hdma);
 512:C:/Users/vovua/STM32Cube/Repository/STM32Cube_FW_F1_V1.8.4/Drivers/STM32F1xx_HAL_Driver/Src\stm32f1xx_hal_dma.c ****     return HAL_ERROR;
 513:C:/Users/vovua/STM32Cube/Repository/STM32Cube_FW_F1_V1.8.4/Drivers/STM32F1xx_HAL_Driver/Src\stm32f1xx_hal_dma.c ****   }
 514:C:/Users/vovua/STM32Cube/Repository/STM32Cube_FW_F1_V1.8.4/Drivers/STM32F1xx_HAL_Driver/Src\stm32f1xx_hal_dma.c **** 
 515:C:/Users/vovua/STM32Cube/Repository/STM32Cube_FW_F1_V1.8.4/Drivers/STM32F1xx_HAL_Driver/Src\stm32f1xx_hal_dma.c ****   /* Polling mode not supported in circular mode */
 516:C:/Users/vovua/STM32Cube/Repository/STM32Cube_FW_F1_V1.8.4/Drivers/STM32F1xx_HAL_Driver/Src\stm32f1xx_hal_dma.c ****   if (RESET != (hdma->Instance->CCR & DMA_CCR_CIRC))
 517:C:/Users/vovua/STM32Cube/Repository/STM32Cube_FW_F1_V1.8.4/Drivers/STM32F1xx_HAL_Driver/Src\stm32f1xx_hal_dma.c ****   {
 518:C:/Users/vovua/STM32Cube/Repository/STM32Cube_FW_F1_V1.8.4/Drivers/STM32F1xx_HAL_Driver/Src\stm32f1xx_hal_dma.c ****     hdma->ErrorCode = HAL_DMA_ERROR_NOT_SUPPORTED;
 519:C:/Users/vovua/STM32Cube/Repository/STM32Cube_FW_F1_V1.8.4/Drivers/STM32F1xx_HAL_Driver/Src\stm32f1xx_hal_dma.c ****     return HAL_ERROR;
 520:C:/Users/vovua/STM32Cube/Repository/STM32Cube_FW_F1_V1.8.4/Drivers/STM32F1xx_HAL_Driver/Src\stm32f1xx_hal_dma.c ****   }
 521:C:/Users/vovua/STM32Cube/Repository/STM32Cube_FW_F1_V1.8.4/Drivers/STM32F1xx_HAL_Driver/Src\stm32f1xx_hal_dma.c ****   
 522:C:/Users/vovua/STM32Cube/Repository/STM32Cube_FW_F1_V1.8.4/Drivers/STM32F1xx_HAL_Driver/Src\stm32f1xx_hal_dma.c ****   /* Get the level transfer complete flag */
 523:C:/Users/vovua/STM32Cube/Repository/STM32Cube_FW_F1_V1.8.4/Drivers/STM32F1xx_HAL_Driver/Src\stm32f1xx_hal_dma.c ****   if(CompleteLevel == HAL_DMA_FULL_TRANSFER)
 524:C:/Users/vovua/STM32Cube/Repository/STM32Cube_FW_F1_V1.8.4/Drivers/STM32F1xx_HAL_Driver/Src\stm32f1xx_hal_dma.c ****   {
 525:C:/Users/vovua/STM32Cube/Repository/STM32Cube_FW_F1_V1.8.4/Drivers/STM32F1xx_HAL_Driver/Src\stm32f1xx_hal_dma.c ****     /* Transfer Complete flag */
 526:C:/Users/vovua/STM32Cube/Repository/STM32Cube_FW_F1_V1.8.4/Drivers/STM32F1xx_HAL_Driver/Src\stm32f1xx_hal_dma.c ****     temp = __HAL_DMA_GET_TC_FLAG_INDEX(hdma);
 527:C:/Users/vovua/STM32Cube/Repository/STM32Cube_FW_F1_V1.8.4/Drivers/STM32F1xx_HAL_Driver/Src\stm32f1xx_hal_dma.c ****   }
 528:C:/Users/vovua/STM32Cube/Repository/STM32Cube_FW_F1_V1.8.4/Drivers/STM32F1xx_HAL_Driver/Src\stm32f1xx_hal_dma.c ****   else
 529:C:/Users/vovua/STM32Cube/Repository/STM32Cube_FW_F1_V1.8.4/Drivers/STM32F1xx_HAL_Driver/Src\stm32f1xx_hal_dma.c ****   {
 530:C:/Users/vovua/STM32Cube/Repository/STM32Cube_FW_F1_V1.8.4/Drivers/STM32F1xx_HAL_Driver/Src\stm32f1xx_hal_dma.c ****     /* Half Transfer Complete flag */
 531:C:/Users/vovua/STM32Cube/Repository/STM32Cube_FW_F1_V1.8.4/Drivers/STM32F1xx_HAL_Driver/Src\stm32f1xx_hal_dma.c ****     temp = __HAL_DMA_GET_HT_FLAG_INDEX(hdma);
 532:C:/Users/vovua/STM32Cube/Repository/STM32Cube_FW_F1_V1.8.4/Drivers/STM32F1xx_HAL_Driver/Src\stm32f1xx_hal_dma.c ****   }
 533:C:/Users/vovua/STM32Cube/Repository/STM32Cube_FW_F1_V1.8.4/Drivers/STM32F1xx_HAL_Driver/Src\stm32f1xx_hal_dma.c **** 
 534:C:/Users/vovua/STM32Cube/Repository/STM32Cube_FW_F1_V1.8.4/Drivers/STM32F1xx_HAL_Driver/Src\stm32f1xx_hal_dma.c ****   /* Get tick */
 535:C:/Users/vovua/STM32Cube/Repository/STM32Cube_FW_F1_V1.8.4/Drivers/STM32F1xx_HAL_Driver/Src\stm32f1xx_hal_dma.c ****   tickstart = HAL_GetTick();
 536:C:/Users/vovua/STM32Cube/Repository/STM32Cube_FW_F1_V1.8.4/Drivers/STM32F1xx_HAL_Driver/Src\stm32f1xx_hal_dma.c **** 
 537:C:/Users/vovua/STM32Cube/Repository/STM32Cube_FW_F1_V1.8.4/Drivers/STM32F1xx_HAL_Driver/Src\stm32f1xx_hal_dma.c ****   while(__HAL_DMA_GET_FLAG(hdma, temp) == RESET)
 538:C:/Users/vovua/STM32Cube/Repository/STM32Cube_FW_F1_V1.8.4/Drivers/STM32F1xx_HAL_Driver/Src\stm32f1xx_hal_dma.c ****   {
 539:C:/Users/vovua/STM32Cube/Repository/STM32Cube_FW_F1_V1.8.4/Drivers/STM32F1xx_HAL_Driver/Src\stm32f1xx_hal_dma.c ****     if((__HAL_DMA_GET_FLAG(hdma, __HAL_DMA_GET_TE_FLAG_INDEX(hdma)) != RESET))
 540:C:/Users/vovua/STM32Cube/Repository/STM32Cube_FW_F1_V1.8.4/Drivers/STM32F1xx_HAL_Driver/Src\stm32f1xx_hal_dma.c ****     {
 541:C:/Users/vovua/STM32Cube/Repository/STM32Cube_FW_F1_V1.8.4/Drivers/STM32F1xx_HAL_Driver/Src\stm32f1xx_hal_dma.c ****       /* When a DMA transfer error occurs */
 542:C:/Users/vovua/STM32Cube/Repository/STM32Cube_FW_F1_V1.8.4/Drivers/STM32F1xx_HAL_Driver/Src\stm32f1xx_hal_dma.c ****       /* A hardware clear of its EN bits is performed */
 543:C:/Users/vovua/STM32Cube/Repository/STM32Cube_FW_F1_V1.8.4/Drivers/STM32F1xx_HAL_Driver/Src\stm32f1xx_hal_dma.c ****       /* Clear all flags */
 544:C:/Users/vovua/STM32Cube/Repository/STM32Cube_FW_F1_V1.8.4/Drivers/STM32F1xx_HAL_Driver/Src\stm32f1xx_hal_dma.c ****       hdma->DmaBaseAddress->IFCR = (DMA_ISR_GIF1 << hdma->ChannelIndex);
 545:C:/Users/vovua/STM32Cube/Repository/STM32Cube_FW_F1_V1.8.4/Drivers/STM32F1xx_HAL_Driver/Src\stm32f1xx_hal_dma.c **** 
ARM GAS  C:\Users\vovua\AppData\Local\Temp\cc7FFceq.s 			page 11


 546:C:/Users/vovua/STM32Cube/Repository/STM32Cube_FW_F1_V1.8.4/Drivers/STM32F1xx_HAL_Driver/Src\stm32f1xx_hal_dma.c ****       /* Update error code */
 547:C:/Users/vovua/STM32Cube/Repository/STM32Cube_FW_F1_V1.8.4/Drivers/STM32F1xx_HAL_Driver/Src\stm32f1xx_hal_dma.c ****       SET_BIT(hdma->ErrorCode, HAL_DMA_ERROR_TE);
 548:C:/Users/vovua/STM32Cube/Repository/STM32Cube_FW_F1_V1.8.4/Drivers/STM32F1xx_HAL_Driver/Src\stm32f1xx_hal_dma.c **** 
 549:C:/Users/vovua/STM32Cube/Repository/STM32Cube_FW_F1_V1.8.4/Drivers/STM32F1xx_HAL_Driver/Src\stm32f1xx_hal_dma.c ****       /* Change the DMA state */
 550:C:/Users/vovua/STM32Cube/Repository/STM32Cube_FW_F1_V1.8.4/Drivers/STM32F1xx_HAL_Driver/Src\stm32f1xx_hal_dma.c ****       hdma->State= HAL_DMA_STATE_READY;
 551:C:/Users/vovua/STM32Cube/Repository/STM32Cube_FW_F1_V1.8.4/Drivers/STM32F1xx_HAL_Driver/Src\stm32f1xx_hal_dma.c **** 
 552:C:/Users/vovua/STM32Cube/Repository/STM32Cube_FW_F1_V1.8.4/Drivers/STM32F1xx_HAL_Driver/Src\stm32f1xx_hal_dma.c ****       /* Process Unlocked */
 553:C:/Users/vovua/STM32Cube/Repository/STM32Cube_FW_F1_V1.8.4/Drivers/STM32F1xx_HAL_Driver/Src\stm32f1xx_hal_dma.c ****       __HAL_UNLOCK(hdma);
 554:C:/Users/vovua/STM32Cube/Repository/STM32Cube_FW_F1_V1.8.4/Drivers/STM32F1xx_HAL_Driver/Src\stm32f1xx_hal_dma.c **** 
 555:C:/Users/vovua/STM32Cube/Repository/STM32Cube_FW_F1_V1.8.4/Drivers/STM32F1xx_HAL_Driver/Src\stm32f1xx_hal_dma.c ****       return HAL_ERROR;
 556:C:/Users/vovua/STM32Cube/Repository/STM32Cube_FW_F1_V1.8.4/Drivers/STM32F1xx_HAL_Driver/Src\stm32f1xx_hal_dma.c ****     }
 557:C:/Users/vovua/STM32Cube/Repository/STM32Cube_FW_F1_V1.8.4/Drivers/STM32F1xx_HAL_Driver/Src\stm32f1xx_hal_dma.c ****     /* Check for the Timeout */
 558:C:/Users/vovua/STM32Cube/Repository/STM32Cube_FW_F1_V1.8.4/Drivers/STM32F1xx_HAL_Driver/Src\stm32f1xx_hal_dma.c ****     if(Timeout != HAL_MAX_DELAY)
 559:C:/Users/vovua/STM32Cube/Repository/STM32Cube_FW_F1_V1.8.4/Drivers/STM32F1xx_HAL_Driver/Src\stm32f1xx_hal_dma.c ****     {
 560:C:/Users/vovua/STM32Cube/Repository/STM32Cube_FW_F1_V1.8.4/Drivers/STM32F1xx_HAL_Driver/Src\stm32f1xx_hal_dma.c ****       if((Timeout == 0U) || ((HAL_GetTick() - tickstart) > Timeout))
 561:C:/Users/vovua/STM32Cube/Repository/STM32Cube_FW_F1_V1.8.4/Drivers/STM32F1xx_HAL_Driver/Src\stm32f1xx_hal_dma.c ****       {
 562:C:/Users/vovua/STM32Cube/Repository/STM32Cube_FW_F1_V1.8.4/Drivers/STM32F1xx_HAL_Driver/Src\stm32f1xx_hal_dma.c ****         /* Update error code */
 563:C:/Users/vovua/STM32Cube/Repository/STM32Cube_FW_F1_V1.8.4/Drivers/STM32F1xx_HAL_Driver/Src\stm32f1xx_hal_dma.c ****         SET_BIT(hdma->ErrorCode, HAL_DMA_ERROR_TIMEOUT);
 564:C:/Users/vovua/STM32Cube/Repository/STM32Cube_FW_F1_V1.8.4/Drivers/STM32F1xx_HAL_Driver/Src\stm32f1xx_hal_dma.c **** 
 565:C:/Users/vovua/STM32Cube/Repository/STM32Cube_FW_F1_V1.8.4/Drivers/STM32F1xx_HAL_Driver/Src\stm32f1xx_hal_dma.c ****         /* Change the DMA state */
 566:C:/Users/vovua/STM32Cube/Repository/STM32Cube_FW_F1_V1.8.4/Drivers/STM32F1xx_HAL_Driver/Src\stm32f1xx_hal_dma.c ****         hdma->State = HAL_DMA_STATE_READY;
 567:C:/Users/vovua/STM32Cube/Repository/STM32Cube_FW_F1_V1.8.4/Drivers/STM32F1xx_HAL_Driver/Src\stm32f1xx_hal_dma.c **** 
 568:C:/Users/vovua/STM32Cube/Repository/STM32Cube_FW_F1_V1.8.4/Drivers/STM32F1xx_HAL_Driver/Src\stm32f1xx_hal_dma.c ****         /* Process Unlocked */
 569:C:/Users/vovua/STM32Cube/Repository/STM32Cube_FW_F1_V1.8.4/Drivers/STM32F1xx_HAL_Driver/Src\stm32f1xx_hal_dma.c ****         __HAL_UNLOCK(hdma);
 570:C:/Users/vovua/STM32Cube/Repository/STM32Cube_FW_F1_V1.8.4/Drivers/STM32F1xx_HAL_Driver/Src\stm32f1xx_hal_dma.c **** 
 571:C:/Users/vovua/STM32Cube/Repository/STM32Cube_FW_F1_V1.8.4/Drivers/STM32F1xx_HAL_Driver/Src\stm32f1xx_hal_dma.c ****         return HAL_ERROR;
 572:C:/Users/vovua/STM32Cube/Repository/STM32Cube_FW_F1_V1.8.4/Drivers/STM32F1xx_HAL_Driver/Src\stm32f1xx_hal_dma.c ****       }
 573:C:/Users/vovua/STM32Cube/Repository/STM32Cube_FW_F1_V1.8.4/Drivers/STM32F1xx_HAL_Driver/Src\stm32f1xx_hal_dma.c ****     }
 574:C:/Users/vovua/STM32Cube/Repository/STM32Cube_FW_F1_V1.8.4/Drivers/STM32F1xx_HAL_Driver/Src\stm32f1xx_hal_dma.c ****   }
 575:C:/Users/vovua/STM32Cube/Repository/STM32Cube_FW_F1_V1.8.4/Drivers/STM32F1xx_HAL_Driver/Src\stm32f1xx_hal_dma.c **** 
 576:C:/Users/vovua/STM32Cube/Repository/STM32Cube_FW_F1_V1.8.4/Drivers/STM32F1xx_HAL_Driver/Src\stm32f1xx_hal_dma.c ****   if(CompleteLevel == HAL_DMA_FULL_TRANSFER)
 577:C:/Users/vovua/STM32Cube/Repository/STM32Cube_FW_F1_V1.8.4/Drivers/STM32F1xx_HAL_Driver/Src\stm32f1xx_hal_dma.c ****   {
 578:C:/Users/vovua/STM32Cube/Repository/STM32Cube_FW_F1_V1.8.4/Drivers/STM32F1xx_HAL_Driver/Src\stm32f1xx_hal_dma.c ****     /* Clear the transfer complete flag */
 579:C:/Users/vovua/STM32Cube/Repository/STM32Cube_FW_F1_V1.8.4/Drivers/STM32F1xx_HAL_Driver/Src\stm32f1xx_hal_dma.c ****     __HAL_DMA_CLEAR_FLAG(hdma, __HAL_DMA_GET_TC_FLAG_INDEX(hdma));
 580:C:/Users/vovua/STM32Cube/Repository/STM32Cube_FW_F1_V1.8.4/Drivers/STM32F1xx_HAL_Driver/Src\stm32f1xx_hal_dma.c **** 
 581:C:/Users/vovua/STM32Cube/Repository/STM32Cube_FW_F1_V1.8.4/Drivers/STM32F1xx_HAL_Driver/Src\stm32f1xx_hal_dma.c ****     /* The selected Channelx EN bit is cleared (DMA is disabled and
 582:C:/Users/vovua/STM32Cube/Repository/STM32Cube_FW_F1_V1.8.4/Drivers/STM32F1xx_HAL_Driver/Src\stm32f1xx_hal_dma.c ****     all transfers are complete) */
 583:C:/Users/vovua/STM32Cube/Repository/STM32Cube_FW_F1_V1.8.4/Drivers/STM32F1xx_HAL_Driver/Src\stm32f1xx_hal_dma.c ****     hdma->State = HAL_DMA_STATE_READY;
 584:C:/Users/vovua/STM32Cube/Repository/STM32Cube_FW_F1_V1.8.4/Drivers/STM32F1xx_HAL_Driver/Src\stm32f1xx_hal_dma.c ****   }
 585:C:/Users/vovua/STM32Cube/Repository/STM32Cube_FW_F1_V1.8.4/Drivers/STM32F1xx_HAL_Driver/Src\stm32f1xx_hal_dma.c ****   else
 586:C:/Users/vovua/STM32Cube/Repository/STM32Cube_FW_F1_V1.8.4/Drivers/STM32F1xx_HAL_Driver/Src\stm32f1xx_hal_dma.c ****   {
 587:C:/Users/vovua/STM32Cube/Repository/STM32Cube_FW_F1_V1.8.4/Drivers/STM32F1xx_HAL_Driver/Src\stm32f1xx_hal_dma.c ****     /* Clear the half transfer complete flag */
 588:C:/Users/vovua/STM32Cube/Repository/STM32Cube_FW_F1_V1.8.4/Drivers/STM32F1xx_HAL_Driver/Src\stm32f1xx_hal_dma.c ****     __HAL_DMA_CLEAR_FLAG(hdma, __HAL_DMA_GET_HT_FLAG_INDEX(hdma));
 589:C:/Users/vovua/STM32Cube/Repository/STM32Cube_FW_F1_V1.8.4/Drivers/STM32F1xx_HAL_Driver/Src\stm32f1xx_hal_dma.c ****   }
 590:C:/Users/vovua/STM32Cube/Repository/STM32Cube_FW_F1_V1.8.4/Drivers/STM32F1xx_HAL_Driver/Src\stm32f1xx_hal_dma.c ****   
 591:C:/Users/vovua/STM32Cube/Repository/STM32Cube_FW_F1_V1.8.4/Drivers/STM32F1xx_HAL_Driver/Src\stm32f1xx_hal_dma.c ****   /* Process unlocked */
 592:C:/Users/vovua/STM32Cube/Repository/STM32Cube_FW_F1_V1.8.4/Drivers/STM32F1xx_HAL_Driver/Src\stm32f1xx_hal_dma.c ****   __HAL_UNLOCK(hdma);
 593:C:/Users/vovua/STM32Cube/Repository/STM32Cube_FW_F1_V1.8.4/Drivers/STM32F1xx_HAL_Driver/Src\stm32f1xx_hal_dma.c **** 
 594:C:/Users/vovua/STM32Cube/Repository/STM32Cube_FW_F1_V1.8.4/Drivers/STM32F1xx_HAL_Driver/Src\stm32f1xx_hal_dma.c ****   return HAL_OK;
 595:C:/Users/vovua/STM32Cube/Repository/STM32Cube_FW_F1_V1.8.4/Drivers/STM32F1xx_HAL_Driver/Src\stm32f1xx_hal_dma.c **** }
 596:C:/Users/vovua/STM32Cube/Repository/STM32Cube_FW_F1_V1.8.4/Drivers/STM32F1xx_HAL_Driver/Src\stm32f1xx_hal_dma.c **** 
 597:C:/Users/vovua/STM32Cube/Repository/STM32Cube_FW_F1_V1.8.4/Drivers/STM32F1xx_HAL_Driver/Src\stm32f1xx_hal_dma.c **** /**
 598:C:/Users/vovua/STM32Cube/Repository/STM32Cube_FW_F1_V1.8.4/Drivers/STM32F1xx_HAL_Driver/Src\stm32f1xx_hal_dma.c ****   * @brief  Handles DMA interrupt request.
 599:C:/Users/vovua/STM32Cube/Repository/STM32Cube_FW_F1_V1.8.4/Drivers/STM32F1xx_HAL_Driver/Src\stm32f1xx_hal_dma.c ****   * @param  hdma: pointer to a DMA_HandleTypeDef structure that contains
 600:C:/Users/vovua/STM32Cube/Repository/STM32Cube_FW_F1_V1.8.4/Drivers/STM32F1xx_HAL_Driver/Src\stm32f1xx_hal_dma.c ****   *               the configuration information for the specified DMA Channel.  
 601:C:/Users/vovua/STM32Cube/Repository/STM32Cube_FW_F1_V1.8.4/Drivers/STM32F1xx_HAL_Driver/Src\stm32f1xx_hal_dma.c ****   * @retval None
 602:C:/Users/vovua/STM32Cube/Repository/STM32Cube_FW_F1_V1.8.4/Drivers/STM32F1xx_HAL_Driver/Src\stm32f1xx_hal_dma.c ****   */
ARM GAS  C:\Users\vovua\AppData\Local\Temp\cc7FFceq.s 			page 12


 603:C:/Users/vovua/STM32Cube/Repository/STM32Cube_FW_F1_V1.8.4/Drivers/STM32F1xx_HAL_Driver/Src\stm32f1xx_hal_dma.c **** void HAL_DMA_IRQHandler(DMA_HandleTypeDef *hdma)
 604:C:/Users/vovua/STM32Cube/Repository/STM32Cube_FW_F1_V1.8.4/Drivers/STM32F1xx_HAL_Driver/Src\stm32f1xx_hal_dma.c **** {
 605:C:/Users/vovua/STM32Cube/Repository/STM32Cube_FW_F1_V1.8.4/Drivers/STM32F1xx_HAL_Driver/Src\stm32f1xx_hal_dma.c ****   uint32_t flag_it = hdma->DmaBaseAddress->ISR;
 606:C:/Users/vovua/STM32Cube/Repository/STM32Cube_FW_F1_V1.8.4/Drivers/STM32F1xx_HAL_Driver/Src\stm32f1xx_hal_dma.c ****   uint32_t source_it = hdma->Instance->CCR;
 607:C:/Users/vovua/STM32Cube/Repository/STM32Cube_FW_F1_V1.8.4/Drivers/STM32F1xx_HAL_Driver/Src\stm32f1xx_hal_dma.c ****   
 608:C:/Users/vovua/STM32Cube/Repository/STM32Cube_FW_F1_V1.8.4/Drivers/STM32F1xx_HAL_Driver/Src\stm32f1xx_hal_dma.c ****   /* Half Transfer Complete Interrupt management ******************************/
 609:C:/Users/vovua/STM32Cube/Repository/STM32Cube_FW_F1_V1.8.4/Drivers/STM32F1xx_HAL_Driver/Src\stm32f1xx_hal_dma.c ****   if (((flag_it & (DMA_FLAG_HT1 << hdma->ChannelIndex)) != RESET) && ((source_it & DMA_IT_HT) != RE
 610:C:/Users/vovua/STM32Cube/Repository/STM32Cube_FW_F1_V1.8.4/Drivers/STM32F1xx_HAL_Driver/Src\stm32f1xx_hal_dma.c ****   {
 611:C:/Users/vovua/STM32Cube/Repository/STM32Cube_FW_F1_V1.8.4/Drivers/STM32F1xx_HAL_Driver/Src\stm32f1xx_hal_dma.c ****     /* Disable the half transfer interrupt if the DMA mode is not CIRCULAR */
 612:C:/Users/vovua/STM32Cube/Repository/STM32Cube_FW_F1_V1.8.4/Drivers/STM32F1xx_HAL_Driver/Src\stm32f1xx_hal_dma.c ****     if((hdma->Instance->CCR & DMA_CCR_CIRC) == 0U)
 613:C:/Users/vovua/STM32Cube/Repository/STM32Cube_FW_F1_V1.8.4/Drivers/STM32F1xx_HAL_Driver/Src\stm32f1xx_hal_dma.c ****     {
 614:C:/Users/vovua/STM32Cube/Repository/STM32Cube_FW_F1_V1.8.4/Drivers/STM32F1xx_HAL_Driver/Src\stm32f1xx_hal_dma.c ****       /* Disable the half transfer interrupt */
 615:C:/Users/vovua/STM32Cube/Repository/STM32Cube_FW_F1_V1.8.4/Drivers/STM32F1xx_HAL_Driver/Src\stm32f1xx_hal_dma.c ****       __HAL_DMA_DISABLE_IT(hdma, DMA_IT_HT);
 616:C:/Users/vovua/STM32Cube/Repository/STM32Cube_FW_F1_V1.8.4/Drivers/STM32F1xx_HAL_Driver/Src\stm32f1xx_hal_dma.c ****     }
 617:C:/Users/vovua/STM32Cube/Repository/STM32Cube_FW_F1_V1.8.4/Drivers/STM32F1xx_HAL_Driver/Src\stm32f1xx_hal_dma.c ****     /* Clear the half transfer complete flag */
 618:C:/Users/vovua/STM32Cube/Repository/STM32Cube_FW_F1_V1.8.4/Drivers/STM32F1xx_HAL_Driver/Src\stm32f1xx_hal_dma.c ****     __HAL_DMA_CLEAR_FLAG(hdma, __HAL_DMA_GET_HT_FLAG_INDEX(hdma));
 619:C:/Users/vovua/STM32Cube/Repository/STM32Cube_FW_F1_V1.8.4/Drivers/STM32F1xx_HAL_Driver/Src\stm32f1xx_hal_dma.c **** 
 620:C:/Users/vovua/STM32Cube/Repository/STM32Cube_FW_F1_V1.8.4/Drivers/STM32F1xx_HAL_Driver/Src\stm32f1xx_hal_dma.c ****     /* DMA peripheral state is not updated in Half Transfer */
 621:C:/Users/vovua/STM32Cube/Repository/STM32Cube_FW_F1_V1.8.4/Drivers/STM32F1xx_HAL_Driver/Src\stm32f1xx_hal_dma.c ****     /* but in Transfer Complete case */
 622:C:/Users/vovua/STM32Cube/Repository/STM32Cube_FW_F1_V1.8.4/Drivers/STM32F1xx_HAL_Driver/Src\stm32f1xx_hal_dma.c **** 
 623:C:/Users/vovua/STM32Cube/Repository/STM32Cube_FW_F1_V1.8.4/Drivers/STM32F1xx_HAL_Driver/Src\stm32f1xx_hal_dma.c ****     if(hdma->XferHalfCpltCallback != NULL)
 624:C:/Users/vovua/STM32Cube/Repository/STM32Cube_FW_F1_V1.8.4/Drivers/STM32F1xx_HAL_Driver/Src\stm32f1xx_hal_dma.c ****     {
 625:C:/Users/vovua/STM32Cube/Repository/STM32Cube_FW_F1_V1.8.4/Drivers/STM32F1xx_HAL_Driver/Src\stm32f1xx_hal_dma.c ****       /* Half transfer callback */
 626:C:/Users/vovua/STM32Cube/Repository/STM32Cube_FW_F1_V1.8.4/Drivers/STM32F1xx_HAL_Driver/Src\stm32f1xx_hal_dma.c ****       hdma->XferHalfCpltCallback(hdma);
 627:C:/Users/vovua/STM32Cube/Repository/STM32Cube_FW_F1_V1.8.4/Drivers/STM32F1xx_HAL_Driver/Src\stm32f1xx_hal_dma.c ****     }
 628:C:/Users/vovua/STM32Cube/Repository/STM32Cube_FW_F1_V1.8.4/Drivers/STM32F1xx_HAL_Driver/Src\stm32f1xx_hal_dma.c ****   }
 629:C:/Users/vovua/STM32Cube/Repository/STM32Cube_FW_F1_V1.8.4/Drivers/STM32F1xx_HAL_Driver/Src\stm32f1xx_hal_dma.c **** 
 630:C:/Users/vovua/STM32Cube/Repository/STM32Cube_FW_F1_V1.8.4/Drivers/STM32F1xx_HAL_Driver/Src\stm32f1xx_hal_dma.c ****   /* Transfer Complete Interrupt management ***********************************/
 631:C:/Users/vovua/STM32Cube/Repository/STM32Cube_FW_F1_V1.8.4/Drivers/STM32F1xx_HAL_Driver/Src\stm32f1xx_hal_dma.c ****   else if (((flag_it & (DMA_FLAG_TC1 << hdma->ChannelIndex)) != RESET) && ((source_it & DMA_IT_TC) 
 632:C:/Users/vovua/STM32Cube/Repository/STM32Cube_FW_F1_V1.8.4/Drivers/STM32F1xx_HAL_Driver/Src\stm32f1xx_hal_dma.c ****   {
 633:C:/Users/vovua/STM32Cube/Repository/STM32Cube_FW_F1_V1.8.4/Drivers/STM32F1xx_HAL_Driver/Src\stm32f1xx_hal_dma.c ****     if((hdma->Instance->CCR & DMA_CCR_CIRC) == 0U)
 634:C:/Users/vovua/STM32Cube/Repository/STM32Cube_FW_F1_V1.8.4/Drivers/STM32F1xx_HAL_Driver/Src\stm32f1xx_hal_dma.c ****     {
 635:C:/Users/vovua/STM32Cube/Repository/STM32Cube_FW_F1_V1.8.4/Drivers/STM32F1xx_HAL_Driver/Src\stm32f1xx_hal_dma.c ****       /* Disable the transfer complete and error interrupt */
 636:C:/Users/vovua/STM32Cube/Repository/STM32Cube_FW_F1_V1.8.4/Drivers/STM32F1xx_HAL_Driver/Src\stm32f1xx_hal_dma.c ****       __HAL_DMA_DISABLE_IT(hdma, DMA_IT_TE | DMA_IT_TC);  
 637:C:/Users/vovua/STM32Cube/Repository/STM32Cube_FW_F1_V1.8.4/Drivers/STM32F1xx_HAL_Driver/Src\stm32f1xx_hal_dma.c **** 
 638:C:/Users/vovua/STM32Cube/Repository/STM32Cube_FW_F1_V1.8.4/Drivers/STM32F1xx_HAL_Driver/Src\stm32f1xx_hal_dma.c ****       /* Change the DMA state */
 639:C:/Users/vovua/STM32Cube/Repository/STM32Cube_FW_F1_V1.8.4/Drivers/STM32F1xx_HAL_Driver/Src\stm32f1xx_hal_dma.c ****       hdma->State = HAL_DMA_STATE_READY;
 640:C:/Users/vovua/STM32Cube/Repository/STM32Cube_FW_F1_V1.8.4/Drivers/STM32F1xx_HAL_Driver/Src\stm32f1xx_hal_dma.c ****     }
 641:C:/Users/vovua/STM32Cube/Repository/STM32Cube_FW_F1_V1.8.4/Drivers/STM32F1xx_HAL_Driver/Src\stm32f1xx_hal_dma.c ****     /* Clear the transfer complete flag */
 642:C:/Users/vovua/STM32Cube/Repository/STM32Cube_FW_F1_V1.8.4/Drivers/STM32F1xx_HAL_Driver/Src\stm32f1xx_hal_dma.c ****       __HAL_DMA_CLEAR_FLAG(hdma, __HAL_DMA_GET_TC_FLAG_INDEX(hdma));
 643:C:/Users/vovua/STM32Cube/Repository/STM32Cube_FW_F1_V1.8.4/Drivers/STM32F1xx_HAL_Driver/Src\stm32f1xx_hal_dma.c **** 
 644:C:/Users/vovua/STM32Cube/Repository/STM32Cube_FW_F1_V1.8.4/Drivers/STM32F1xx_HAL_Driver/Src\stm32f1xx_hal_dma.c ****     /* Process Unlocked */
 645:C:/Users/vovua/STM32Cube/Repository/STM32Cube_FW_F1_V1.8.4/Drivers/STM32F1xx_HAL_Driver/Src\stm32f1xx_hal_dma.c ****     __HAL_UNLOCK(hdma);
 646:C:/Users/vovua/STM32Cube/Repository/STM32Cube_FW_F1_V1.8.4/Drivers/STM32F1xx_HAL_Driver/Src\stm32f1xx_hal_dma.c **** 
 647:C:/Users/vovua/STM32Cube/Repository/STM32Cube_FW_F1_V1.8.4/Drivers/STM32F1xx_HAL_Driver/Src\stm32f1xx_hal_dma.c ****     if(hdma->XferCpltCallback != NULL)
 648:C:/Users/vovua/STM32Cube/Repository/STM32Cube_FW_F1_V1.8.4/Drivers/STM32F1xx_HAL_Driver/Src\stm32f1xx_hal_dma.c ****     {
 649:C:/Users/vovua/STM32Cube/Repository/STM32Cube_FW_F1_V1.8.4/Drivers/STM32F1xx_HAL_Driver/Src\stm32f1xx_hal_dma.c ****       /* Transfer complete callback */
 650:C:/Users/vovua/STM32Cube/Repository/STM32Cube_FW_F1_V1.8.4/Drivers/STM32F1xx_HAL_Driver/Src\stm32f1xx_hal_dma.c ****       hdma->XferCpltCallback(hdma);
 651:C:/Users/vovua/STM32Cube/Repository/STM32Cube_FW_F1_V1.8.4/Drivers/STM32F1xx_HAL_Driver/Src\stm32f1xx_hal_dma.c ****     }
 652:C:/Users/vovua/STM32Cube/Repository/STM32Cube_FW_F1_V1.8.4/Drivers/STM32F1xx_HAL_Driver/Src\stm32f1xx_hal_dma.c ****   }
 653:C:/Users/vovua/STM32Cube/Repository/STM32Cube_FW_F1_V1.8.4/Drivers/STM32F1xx_HAL_Driver/Src\stm32f1xx_hal_dma.c **** 
 654:C:/Users/vovua/STM32Cube/Repository/STM32Cube_FW_F1_V1.8.4/Drivers/STM32F1xx_HAL_Driver/Src\stm32f1xx_hal_dma.c ****   /* Transfer Error Interrupt management **************************************/
 655:C:/Users/vovua/STM32Cube/Repository/STM32Cube_FW_F1_V1.8.4/Drivers/STM32F1xx_HAL_Driver/Src\stm32f1xx_hal_dma.c ****   else if (( RESET != (flag_it & (DMA_FLAG_TE1 << hdma->ChannelIndex))) && (RESET != (source_it & D
 656:C:/Users/vovua/STM32Cube/Repository/STM32Cube_FW_F1_V1.8.4/Drivers/STM32F1xx_HAL_Driver/Src\stm32f1xx_hal_dma.c ****   {
 657:C:/Users/vovua/STM32Cube/Repository/STM32Cube_FW_F1_V1.8.4/Drivers/STM32F1xx_HAL_Driver/Src\stm32f1xx_hal_dma.c ****     /* When a DMA transfer error occurs */
 658:C:/Users/vovua/STM32Cube/Repository/STM32Cube_FW_F1_V1.8.4/Drivers/STM32F1xx_HAL_Driver/Src\stm32f1xx_hal_dma.c ****     /* A hardware clear of its EN bits is performed */
 659:C:/Users/vovua/STM32Cube/Repository/STM32Cube_FW_F1_V1.8.4/Drivers/STM32F1xx_HAL_Driver/Src\stm32f1xx_hal_dma.c ****     /* Disable ALL DMA IT */
ARM GAS  C:\Users\vovua\AppData\Local\Temp\cc7FFceq.s 			page 13


 660:C:/Users/vovua/STM32Cube/Repository/STM32Cube_FW_F1_V1.8.4/Drivers/STM32F1xx_HAL_Driver/Src\stm32f1xx_hal_dma.c ****     __HAL_DMA_DISABLE_IT(hdma, (DMA_IT_TC | DMA_IT_HT | DMA_IT_TE));
 661:C:/Users/vovua/STM32Cube/Repository/STM32Cube_FW_F1_V1.8.4/Drivers/STM32F1xx_HAL_Driver/Src\stm32f1xx_hal_dma.c **** 
 662:C:/Users/vovua/STM32Cube/Repository/STM32Cube_FW_F1_V1.8.4/Drivers/STM32F1xx_HAL_Driver/Src\stm32f1xx_hal_dma.c ****     /* Clear all flags */
 663:C:/Users/vovua/STM32Cube/Repository/STM32Cube_FW_F1_V1.8.4/Drivers/STM32F1xx_HAL_Driver/Src\stm32f1xx_hal_dma.c ****     hdma->DmaBaseAddress->IFCR = (DMA_ISR_GIF1 << hdma->ChannelIndex);
 664:C:/Users/vovua/STM32Cube/Repository/STM32Cube_FW_F1_V1.8.4/Drivers/STM32F1xx_HAL_Driver/Src\stm32f1xx_hal_dma.c **** 
 665:C:/Users/vovua/STM32Cube/Repository/STM32Cube_FW_F1_V1.8.4/Drivers/STM32F1xx_HAL_Driver/Src\stm32f1xx_hal_dma.c ****     /* Update error code */
 666:C:/Users/vovua/STM32Cube/Repository/STM32Cube_FW_F1_V1.8.4/Drivers/STM32F1xx_HAL_Driver/Src\stm32f1xx_hal_dma.c ****     hdma->ErrorCode = HAL_DMA_ERROR_TE;
 667:C:/Users/vovua/STM32Cube/Repository/STM32Cube_FW_F1_V1.8.4/Drivers/STM32F1xx_HAL_Driver/Src\stm32f1xx_hal_dma.c **** 
 668:C:/Users/vovua/STM32Cube/Repository/STM32Cube_FW_F1_V1.8.4/Drivers/STM32F1xx_HAL_Driver/Src\stm32f1xx_hal_dma.c ****     /* Change the DMA state */
 669:C:/Users/vovua/STM32Cube/Repository/STM32Cube_FW_F1_V1.8.4/Drivers/STM32F1xx_HAL_Driver/Src\stm32f1xx_hal_dma.c ****     hdma->State = HAL_DMA_STATE_READY;
 670:C:/Users/vovua/STM32Cube/Repository/STM32Cube_FW_F1_V1.8.4/Drivers/STM32F1xx_HAL_Driver/Src\stm32f1xx_hal_dma.c **** 
 671:C:/Users/vovua/STM32Cube/Repository/STM32Cube_FW_F1_V1.8.4/Drivers/STM32F1xx_HAL_Driver/Src\stm32f1xx_hal_dma.c ****     /* Process Unlocked */
 672:C:/Users/vovua/STM32Cube/Repository/STM32Cube_FW_F1_V1.8.4/Drivers/STM32F1xx_HAL_Driver/Src\stm32f1xx_hal_dma.c ****     __HAL_UNLOCK(hdma);
 673:C:/Users/vovua/STM32Cube/Repository/STM32Cube_FW_F1_V1.8.4/Drivers/STM32F1xx_HAL_Driver/Src\stm32f1xx_hal_dma.c **** 
 674:C:/Users/vovua/STM32Cube/Repository/STM32Cube_FW_F1_V1.8.4/Drivers/STM32F1xx_HAL_Driver/Src\stm32f1xx_hal_dma.c ****     if (hdma->XferErrorCallback != NULL)
 675:C:/Users/vovua/STM32Cube/Repository/STM32Cube_FW_F1_V1.8.4/Drivers/STM32F1xx_HAL_Driver/Src\stm32f1xx_hal_dma.c ****     {
 676:C:/Users/vovua/STM32Cube/Repository/STM32Cube_FW_F1_V1.8.4/Drivers/STM32F1xx_HAL_Driver/Src\stm32f1xx_hal_dma.c ****       /* Transfer error callback */
 677:C:/Users/vovua/STM32Cube/Repository/STM32Cube_FW_F1_V1.8.4/Drivers/STM32F1xx_HAL_Driver/Src\stm32f1xx_hal_dma.c ****       hdma->XferErrorCallback(hdma);
 678:C:/Users/vovua/STM32Cube/Repository/STM32Cube_FW_F1_V1.8.4/Drivers/STM32F1xx_HAL_Driver/Src\stm32f1xx_hal_dma.c ****     }
 679:C:/Users/vovua/STM32Cube/Repository/STM32Cube_FW_F1_V1.8.4/Drivers/STM32F1xx_HAL_Driver/Src\stm32f1xx_hal_dma.c ****   }
 680:C:/Users/vovua/STM32Cube/Repository/STM32Cube_FW_F1_V1.8.4/Drivers/STM32F1xx_HAL_Driver/Src\stm32f1xx_hal_dma.c ****   return;
 681:C:/Users/vovua/STM32Cube/Repository/STM32Cube_FW_F1_V1.8.4/Drivers/STM32F1xx_HAL_Driver/Src\stm32f1xx_hal_dma.c **** }
 682:C:/Users/vovua/STM32Cube/Repository/STM32Cube_FW_F1_V1.8.4/Drivers/STM32F1xx_HAL_Driver/Src\stm32f1xx_hal_dma.c **** 
 683:C:/Users/vovua/STM32Cube/Repository/STM32Cube_FW_F1_V1.8.4/Drivers/STM32F1xx_HAL_Driver/Src\stm32f1xx_hal_dma.c **** /**
 684:C:/Users/vovua/STM32Cube/Repository/STM32Cube_FW_F1_V1.8.4/Drivers/STM32F1xx_HAL_Driver/Src\stm32f1xx_hal_dma.c ****   * @brief Register callbacks
 685:C:/Users/vovua/STM32Cube/Repository/STM32Cube_FW_F1_V1.8.4/Drivers/STM32F1xx_HAL_Driver/Src\stm32f1xx_hal_dma.c ****   * @param hdma: pointer to a DMA_HandleTypeDef structure that contains
 686:C:/Users/vovua/STM32Cube/Repository/STM32Cube_FW_F1_V1.8.4/Drivers/STM32F1xx_HAL_Driver/Src\stm32f1xx_hal_dma.c ****   *              the configuration information for the specified DMA Channel.
 687:C:/Users/vovua/STM32Cube/Repository/STM32Cube_FW_F1_V1.8.4/Drivers/STM32F1xx_HAL_Driver/Src\stm32f1xx_hal_dma.c ****   * @param CallbackID: User Callback identifer
 688:C:/Users/vovua/STM32Cube/Repository/STM32Cube_FW_F1_V1.8.4/Drivers/STM32F1xx_HAL_Driver/Src\stm32f1xx_hal_dma.c ****   *                    a HAL_DMA_CallbackIDTypeDef ENUM as parameter.
 689:C:/Users/vovua/STM32Cube/Repository/STM32Cube_FW_F1_V1.8.4/Drivers/STM32F1xx_HAL_Driver/Src\stm32f1xx_hal_dma.c ****   * @param pCallback: pointer to private callbacsk function which has pointer to 
 690:C:/Users/vovua/STM32Cube/Repository/STM32Cube_FW_F1_V1.8.4/Drivers/STM32F1xx_HAL_Driver/Src\stm32f1xx_hal_dma.c ****   *                   a DMA_HandleTypeDef structure as parameter.
 691:C:/Users/vovua/STM32Cube/Repository/STM32Cube_FW_F1_V1.8.4/Drivers/STM32F1xx_HAL_Driver/Src\stm32f1xx_hal_dma.c ****   * @retval HAL status
 692:C:/Users/vovua/STM32Cube/Repository/STM32Cube_FW_F1_V1.8.4/Drivers/STM32F1xx_HAL_Driver/Src\stm32f1xx_hal_dma.c ****   */                          
 693:C:/Users/vovua/STM32Cube/Repository/STM32Cube_FW_F1_V1.8.4/Drivers/STM32F1xx_HAL_Driver/Src\stm32f1xx_hal_dma.c **** HAL_StatusTypeDef HAL_DMA_RegisterCallback(DMA_HandleTypeDef *hdma, HAL_DMA_CallbackIDTypeDef Callb
 694:C:/Users/vovua/STM32Cube/Repository/STM32Cube_FW_F1_V1.8.4/Drivers/STM32F1xx_HAL_Driver/Src\stm32f1xx_hal_dma.c **** {
 695:C:/Users/vovua/STM32Cube/Repository/STM32Cube_FW_F1_V1.8.4/Drivers/STM32F1xx_HAL_Driver/Src\stm32f1xx_hal_dma.c ****   HAL_StatusTypeDef status = HAL_OK;
 696:C:/Users/vovua/STM32Cube/Repository/STM32Cube_FW_F1_V1.8.4/Drivers/STM32F1xx_HAL_Driver/Src\stm32f1xx_hal_dma.c ****   
 697:C:/Users/vovua/STM32Cube/Repository/STM32Cube_FW_F1_V1.8.4/Drivers/STM32F1xx_HAL_Driver/Src\stm32f1xx_hal_dma.c ****   /* Process locked */
 698:C:/Users/vovua/STM32Cube/Repository/STM32Cube_FW_F1_V1.8.4/Drivers/STM32F1xx_HAL_Driver/Src\stm32f1xx_hal_dma.c ****   __HAL_LOCK(hdma);
 699:C:/Users/vovua/STM32Cube/Repository/STM32Cube_FW_F1_V1.8.4/Drivers/STM32F1xx_HAL_Driver/Src\stm32f1xx_hal_dma.c ****   
 700:C:/Users/vovua/STM32Cube/Repository/STM32Cube_FW_F1_V1.8.4/Drivers/STM32F1xx_HAL_Driver/Src\stm32f1xx_hal_dma.c ****   if(HAL_DMA_STATE_READY == hdma->State)
 701:C:/Users/vovua/STM32Cube/Repository/STM32Cube_FW_F1_V1.8.4/Drivers/STM32F1xx_HAL_Driver/Src\stm32f1xx_hal_dma.c ****   {
 702:C:/Users/vovua/STM32Cube/Repository/STM32Cube_FW_F1_V1.8.4/Drivers/STM32F1xx_HAL_Driver/Src\stm32f1xx_hal_dma.c ****     switch (CallbackID)
 703:C:/Users/vovua/STM32Cube/Repository/STM32Cube_FW_F1_V1.8.4/Drivers/STM32F1xx_HAL_Driver/Src\stm32f1xx_hal_dma.c ****     {
 704:C:/Users/vovua/STM32Cube/Repository/STM32Cube_FW_F1_V1.8.4/Drivers/STM32F1xx_HAL_Driver/Src\stm32f1xx_hal_dma.c ****     case  HAL_DMA_XFER_CPLT_CB_ID:
 705:C:/Users/vovua/STM32Cube/Repository/STM32Cube_FW_F1_V1.8.4/Drivers/STM32F1xx_HAL_Driver/Src\stm32f1xx_hal_dma.c ****       hdma->XferCpltCallback = pCallback;
 706:C:/Users/vovua/STM32Cube/Repository/STM32Cube_FW_F1_V1.8.4/Drivers/STM32F1xx_HAL_Driver/Src\stm32f1xx_hal_dma.c ****       break;
 707:C:/Users/vovua/STM32Cube/Repository/STM32Cube_FW_F1_V1.8.4/Drivers/STM32F1xx_HAL_Driver/Src\stm32f1xx_hal_dma.c ****       
 708:C:/Users/vovua/STM32Cube/Repository/STM32Cube_FW_F1_V1.8.4/Drivers/STM32F1xx_HAL_Driver/Src\stm32f1xx_hal_dma.c ****     case  HAL_DMA_XFER_HALFCPLT_CB_ID:
 709:C:/Users/vovua/STM32Cube/Repository/STM32Cube_FW_F1_V1.8.4/Drivers/STM32F1xx_HAL_Driver/Src\stm32f1xx_hal_dma.c ****       hdma->XferHalfCpltCallback = pCallback;
 710:C:/Users/vovua/STM32Cube/Repository/STM32Cube_FW_F1_V1.8.4/Drivers/STM32F1xx_HAL_Driver/Src\stm32f1xx_hal_dma.c ****       break;         
 711:C:/Users/vovua/STM32Cube/Repository/STM32Cube_FW_F1_V1.8.4/Drivers/STM32F1xx_HAL_Driver/Src\stm32f1xx_hal_dma.c **** 
 712:C:/Users/vovua/STM32Cube/Repository/STM32Cube_FW_F1_V1.8.4/Drivers/STM32F1xx_HAL_Driver/Src\stm32f1xx_hal_dma.c ****     case  HAL_DMA_XFER_ERROR_CB_ID:
 713:C:/Users/vovua/STM32Cube/Repository/STM32Cube_FW_F1_V1.8.4/Drivers/STM32F1xx_HAL_Driver/Src\stm32f1xx_hal_dma.c ****       hdma->XferErrorCallback = pCallback;
 714:C:/Users/vovua/STM32Cube/Repository/STM32Cube_FW_F1_V1.8.4/Drivers/STM32F1xx_HAL_Driver/Src\stm32f1xx_hal_dma.c ****       break;         
 715:C:/Users/vovua/STM32Cube/Repository/STM32Cube_FW_F1_V1.8.4/Drivers/STM32F1xx_HAL_Driver/Src\stm32f1xx_hal_dma.c ****       
 716:C:/Users/vovua/STM32Cube/Repository/STM32Cube_FW_F1_V1.8.4/Drivers/STM32F1xx_HAL_Driver/Src\stm32f1xx_hal_dma.c ****     case  HAL_DMA_XFER_ABORT_CB_ID:
ARM GAS  C:\Users\vovua\AppData\Local\Temp\cc7FFceq.s 			page 14


 717:C:/Users/vovua/STM32Cube/Repository/STM32Cube_FW_F1_V1.8.4/Drivers/STM32F1xx_HAL_Driver/Src\stm32f1xx_hal_dma.c ****       hdma->XferAbortCallback = pCallback;
 718:C:/Users/vovua/STM32Cube/Repository/STM32Cube_FW_F1_V1.8.4/Drivers/STM32F1xx_HAL_Driver/Src\stm32f1xx_hal_dma.c ****       break; 
 719:C:/Users/vovua/STM32Cube/Repository/STM32Cube_FW_F1_V1.8.4/Drivers/STM32F1xx_HAL_Driver/Src\stm32f1xx_hal_dma.c ****       
 720:C:/Users/vovua/STM32Cube/Repository/STM32Cube_FW_F1_V1.8.4/Drivers/STM32F1xx_HAL_Driver/Src\stm32f1xx_hal_dma.c ****     default:
 721:C:/Users/vovua/STM32Cube/Repository/STM32Cube_FW_F1_V1.8.4/Drivers/STM32F1xx_HAL_Driver/Src\stm32f1xx_hal_dma.c ****       status = HAL_ERROR;
 722:C:/Users/vovua/STM32Cube/Repository/STM32Cube_FW_F1_V1.8.4/Drivers/STM32F1xx_HAL_Driver/Src\stm32f1xx_hal_dma.c ****       break;                                                            
 723:C:/Users/vovua/STM32Cube/Repository/STM32Cube_FW_F1_V1.8.4/Drivers/STM32F1xx_HAL_Driver/Src\stm32f1xx_hal_dma.c ****     }
 724:C:/Users/vovua/STM32Cube/Repository/STM32Cube_FW_F1_V1.8.4/Drivers/STM32F1xx_HAL_Driver/Src\stm32f1xx_hal_dma.c ****   }
 725:C:/Users/vovua/STM32Cube/Repository/STM32Cube_FW_F1_V1.8.4/Drivers/STM32F1xx_HAL_Driver/Src\stm32f1xx_hal_dma.c ****   else
 726:C:/Users/vovua/STM32Cube/Repository/STM32Cube_FW_F1_V1.8.4/Drivers/STM32F1xx_HAL_Driver/Src\stm32f1xx_hal_dma.c ****   {
 727:C:/Users/vovua/STM32Cube/Repository/STM32Cube_FW_F1_V1.8.4/Drivers/STM32F1xx_HAL_Driver/Src\stm32f1xx_hal_dma.c ****     status = HAL_ERROR;
 728:C:/Users/vovua/STM32Cube/Repository/STM32Cube_FW_F1_V1.8.4/Drivers/STM32F1xx_HAL_Driver/Src\stm32f1xx_hal_dma.c ****   } 
 729:C:/Users/vovua/STM32Cube/Repository/STM32Cube_FW_F1_V1.8.4/Drivers/STM32F1xx_HAL_Driver/Src\stm32f1xx_hal_dma.c ****   
 730:C:/Users/vovua/STM32Cube/Repository/STM32Cube_FW_F1_V1.8.4/Drivers/STM32F1xx_HAL_Driver/Src\stm32f1xx_hal_dma.c ****   /* Release Lock */
 731:C:/Users/vovua/STM32Cube/Repository/STM32Cube_FW_F1_V1.8.4/Drivers/STM32F1xx_HAL_Driver/Src\stm32f1xx_hal_dma.c ****   __HAL_UNLOCK(hdma);
 732:C:/Users/vovua/STM32Cube/Repository/STM32Cube_FW_F1_V1.8.4/Drivers/STM32F1xx_HAL_Driver/Src\stm32f1xx_hal_dma.c ****   
 733:C:/Users/vovua/STM32Cube/Repository/STM32Cube_FW_F1_V1.8.4/Drivers/STM32F1xx_HAL_Driver/Src\stm32f1xx_hal_dma.c ****   return status;
 734:C:/Users/vovua/STM32Cube/Repository/STM32Cube_FW_F1_V1.8.4/Drivers/STM32F1xx_HAL_Driver/Src\stm32f1xx_hal_dma.c **** }
 735:C:/Users/vovua/STM32Cube/Repository/STM32Cube_FW_F1_V1.8.4/Drivers/STM32F1xx_HAL_Driver/Src\stm32f1xx_hal_dma.c **** 
 736:C:/Users/vovua/STM32Cube/Repository/STM32Cube_FW_F1_V1.8.4/Drivers/STM32F1xx_HAL_Driver/Src\stm32f1xx_hal_dma.c **** /**
 737:C:/Users/vovua/STM32Cube/Repository/STM32Cube_FW_F1_V1.8.4/Drivers/STM32F1xx_HAL_Driver/Src\stm32f1xx_hal_dma.c ****   * @brief UnRegister callbacks
 738:C:/Users/vovua/STM32Cube/Repository/STM32Cube_FW_F1_V1.8.4/Drivers/STM32F1xx_HAL_Driver/Src\stm32f1xx_hal_dma.c ****   * @param hdma: pointer to a DMA_HandleTypeDef structure that contains
 739:C:/Users/vovua/STM32Cube/Repository/STM32Cube_FW_F1_V1.8.4/Drivers/STM32F1xx_HAL_Driver/Src\stm32f1xx_hal_dma.c ****   *              the configuration information for the specified DMA Channel.
 740:C:/Users/vovua/STM32Cube/Repository/STM32Cube_FW_F1_V1.8.4/Drivers/STM32F1xx_HAL_Driver/Src\stm32f1xx_hal_dma.c ****   * @param CallbackID: User Callback identifer
 741:C:/Users/vovua/STM32Cube/Repository/STM32Cube_FW_F1_V1.8.4/Drivers/STM32F1xx_HAL_Driver/Src\stm32f1xx_hal_dma.c ****   *                    a HAL_DMA_CallbackIDTypeDef ENUM as parameter.
 742:C:/Users/vovua/STM32Cube/Repository/STM32Cube_FW_F1_V1.8.4/Drivers/STM32F1xx_HAL_Driver/Src\stm32f1xx_hal_dma.c ****   * @retval HAL status
 743:C:/Users/vovua/STM32Cube/Repository/STM32Cube_FW_F1_V1.8.4/Drivers/STM32F1xx_HAL_Driver/Src\stm32f1xx_hal_dma.c ****   */              
 744:C:/Users/vovua/STM32Cube/Repository/STM32Cube_FW_F1_V1.8.4/Drivers/STM32F1xx_HAL_Driver/Src\stm32f1xx_hal_dma.c **** HAL_StatusTypeDef HAL_DMA_UnRegisterCallback(DMA_HandleTypeDef *hdma, HAL_DMA_CallbackIDTypeDef Cal
 745:C:/Users/vovua/STM32Cube/Repository/STM32Cube_FW_F1_V1.8.4/Drivers/STM32F1xx_HAL_Driver/Src\stm32f1xx_hal_dma.c **** {
 746:C:/Users/vovua/STM32Cube/Repository/STM32Cube_FW_F1_V1.8.4/Drivers/STM32F1xx_HAL_Driver/Src\stm32f1xx_hal_dma.c ****   HAL_StatusTypeDef status = HAL_OK;
 747:C:/Users/vovua/STM32Cube/Repository/STM32Cube_FW_F1_V1.8.4/Drivers/STM32F1xx_HAL_Driver/Src\stm32f1xx_hal_dma.c **** 
 748:C:/Users/vovua/STM32Cube/Repository/STM32Cube_FW_F1_V1.8.4/Drivers/STM32F1xx_HAL_Driver/Src\stm32f1xx_hal_dma.c ****   /* Process locked */
 749:C:/Users/vovua/STM32Cube/Repository/STM32Cube_FW_F1_V1.8.4/Drivers/STM32F1xx_HAL_Driver/Src\stm32f1xx_hal_dma.c ****   __HAL_LOCK(hdma);
 750:C:/Users/vovua/STM32Cube/Repository/STM32Cube_FW_F1_V1.8.4/Drivers/STM32F1xx_HAL_Driver/Src\stm32f1xx_hal_dma.c ****   
 751:C:/Users/vovua/STM32Cube/Repository/STM32Cube_FW_F1_V1.8.4/Drivers/STM32F1xx_HAL_Driver/Src\stm32f1xx_hal_dma.c ****   if(HAL_DMA_STATE_READY == hdma->State)
 752:C:/Users/vovua/STM32Cube/Repository/STM32Cube_FW_F1_V1.8.4/Drivers/STM32F1xx_HAL_Driver/Src\stm32f1xx_hal_dma.c ****   {
 753:C:/Users/vovua/STM32Cube/Repository/STM32Cube_FW_F1_V1.8.4/Drivers/STM32F1xx_HAL_Driver/Src\stm32f1xx_hal_dma.c ****     switch (CallbackID)
 754:C:/Users/vovua/STM32Cube/Repository/STM32Cube_FW_F1_V1.8.4/Drivers/STM32F1xx_HAL_Driver/Src\stm32f1xx_hal_dma.c ****     {
 755:C:/Users/vovua/STM32Cube/Repository/STM32Cube_FW_F1_V1.8.4/Drivers/STM32F1xx_HAL_Driver/Src\stm32f1xx_hal_dma.c ****     case  HAL_DMA_XFER_CPLT_CB_ID:
 756:C:/Users/vovua/STM32Cube/Repository/STM32Cube_FW_F1_V1.8.4/Drivers/STM32F1xx_HAL_Driver/Src\stm32f1xx_hal_dma.c ****       hdma->XferCpltCallback = NULL;
 757:C:/Users/vovua/STM32Cube/Repository/STM32Cube_FW_F1_V1.8.4/Drivers/STM32F1xx_HAL_Driver/Src\stm32f1xx_hal_dma.c ****       break;
 758:C:/Users/vovua/STM32Cube/Repository/STM32Cube_FW_F1_V1.8.4/Drivers/STM32F1xx_HAL_Driver/Src\stm32f1xx_hal_dma.c **** 
 759:C:/Users/vovua/STM32Cube/Repository/STM32Cube_FW_F1_V1.8.4/Drivers/STM32F1xx_HAL_Driver/Src\stm32f1xx_hal_dma.c ****     case  HAL_DMA_XFER_HALFCPLT_CB_ID:
 760:C:/Users/vovua/STM32Cube/Repository/STM32Cube_FW_F1_V1.8.4/Drivers/STM32F1xx_HAL_Driver/Src\stm32f1xx_hal_dma.c ****       hdma->XferHalfCpltCallback = NULL;
 761:C:/Users/vovua/STM32Cube/Repository/STM32Cube_FW_F1_V1.8.4/Drivers/STM32F1xx_HAL_Driver/Src\stm32f1xx_hal_dma.c ****       break;         
 762:C:/Users/vovua/STM32Cube/Repository/STM32Cube_FW_F1_V1.8.4/Drivers/STM32F1xx_HAL_Driver/Src\stm32f1xx_hal_dma.c **** 
 763:C:/Users/vovua/STM32Cube/Repository/STM32Cube_FW_F1_V1.8.4/Drivers/STM32F1xx_HAL_Driver/Src\stm32f1xx_hal_dma.c ****     case  HAL_DMA_XFER_ERROR_CB_ID:
 764:C:/Users/vovua/STM32Cube/Repository/STM32Cube_FW_F1_V1.8.4/Drivers/STM32F1xx_HAL_Driver/Src\stm32f1xx_hal_dma.c ****       hdma->XferErrorCallback = NULL;
 765:C:/Users/vovua/STM32Cube/Repository/STM32Cube_FW_F1_V1.8.4/Drivers/STM32F1xx_HAL_Driver/Src\stm32f1xx_hal_dma.c ****       break;         
 766:C:/Users/vovua/STM32Cube/Repository/STM32Cube_FW_F1_V1.8.4/Drivers/STM32F1xx_HAL_Driver/Src\stm32f1xx_hal_dma.c **** 
 767:C:/Users/vovua/STM32Cube/Repository/STM32Cube_FW_F1_V1.8.4/Drivers/STM32F1xx_HAL_Driver/Src\stm32f1xx_hal_dma.c ****     case  HAL_DMA_XFER_ABORT_CB_ID:
 768:C:/Users/vovua/STM32Cube/Repository/STM32Cube_FW_F1_V1.8.4/Drivers/STM32F1xx_HAL_Driver/Src\stm32f1xx_hal_dma.c ****       hdma->XferAbortCallback = NULL;
 769:C:/Users/vovua/STM32Cube/Repository/STM32Cube_FW_F1_V1.8.4/Drivers/STM32F1xx_HAL_Driver/Src\stm32f1xx_hal_dma.c ****       break; 
 770:C:/Users/vovua/STM32Cube/Repository/STM32Cube_FW_F1_V1.8.4/Drivers/STM32F1xx_HAL_Driver/Src\stm32f1xx_hal_dma.c **** 
 771:C:/Users/vovua/STM32Cube/Repository/STM32Cube_FW_F1_V1.8.4/Drivers/STM32F1xx_HAL_Driver/Src\stm32f1xx_hal_dma.c ****     case   HAL_DMA_XFER_ALL_CB_ID:
 772:C:/Users/vovua/STM32Cube/Repository/STM32Cube_FW_F1_V1.8.4/Drivers/STM32F1xx_HAL_Driver/Src\stm32f1xx_hal_dma.c ****       hdma->XferCpltCallback = NULL;
 773:C:/Users/vovua/STM32Cube/Repository/STM32Cube_FW_F1_V1.8.4/Drivers/STM32F1xx_HAL_Driver/Src\stm32f1xx_hal_dma.c ****       hdma->XferHalfCpltCallback = NULL;
ARM GAS  C:\Users\vovua\AppData\Local\Temp\cc7FFceq.s 			page 15


 774:C:/Users/vovua/STM32Cube/Repository/STM32Cube_FW_F1_V1.8.4/Drivers/STM32F1xx_HAL_Driver/Src\stm32f1xx_hal_dma.c ****       hdma->XferErrorCallback = NULL;
 775:C:/Users/vovua/STM32Cube/Repository/STM32Cube_FW_F1_V1.8.4/Drivers/STM32F1xx_HAL_Driver/Src\stm32f1xx_hal_dma.c ****       hdma->XferAbortCallback = NULL;
 776:C:/Users/vovua/STM32Cube/Repository/STM32Cube_FW_F1_V1.8.4/Drivers/STM32F1xx_HAL_Driver/Src\stm32f1xx_hal_dma.c ****       break; 
 777:C:/Users/vovua/STM32Cube/Repository/STM32Cube_FW_F1_V1.8.4/Drivers/STM32F1xx_HAL_Driver/Src\stm32f1xx_hal_dma.c **** 
 778:C:/Users/vovua/STM32Cube/Repository/STM32Cube_FW_F1_V1.8.4/Drivers/STM32F1xx_HAL_Driver/Src\stm32f1xx_hal_dma.c ****     default:
 779:C:/Users/vovua/STM32Cube/Repository/STM32Cube_FW_F1_V1.8.4/Drivers/STM32F1xx_HAL_Driver/Src\stm32f1xx_hal_dma.c ****       status = HAL_ERROR;
 780:C:/Users/vovua/STM32Cube/Repository/STM32Cube_FW_F1_V1.8.4/Drivers/STM32F1xx_HAL_Driver/Src\stm32f1xx_hal_dma.c ****       break;
 781:C:/Users/vovua/STM32Cube/Repository/STM32Cube_FW_F1_V1.8.4/Drivers/STM32F1xx_HAL_Driver/Src\stm32f1xx_hal_dma.c ****     }
 782:C:/Users/vovua/STM32Cube/Repository/STM32Cube_FW_F1_V1.8.4/Drivers/STM32F1xx_HAL_Driver/Src\stm32f1xx_hal_dma.c ****   }
 783:C:/Users/vovua/STM32Cube/Repository/STM32Cube_FW_F1_V1.8.4/Drivers/STM32F1xx_HAL_Driver/Src\stm32f1xx_hal_dma.c ****   else
 784:C:/Users/vovua/STM32Cube/Repository/STM32Cube_FW_F1_V1.8.4/Drivers/STM32F1xx_HAL_Driver/Src\stm32f1xx_hal_dma.c ****   {
 785:C:/Users/vovua/STM32Cube/Repository/STM32Cube_FW_F1_V1.8.4/Drivers/STM32F1xx_HAL_Driver/Src\stm32f1xx_hal_dma.c ****     status = HAL_ERROR;
 786:C:/Users/vovua/STM32Cube/Repository/STM32Cube_FW_F1_V1.8.4/Drivers/STM32F1xx_HAL_Driver/Src\stm32f1xx_hal_dma.c ****   } 
 787:C:/Users/vovua/STM32Cube/Repository/STM32Cube_FW_F1_V1.8.4/Drivers/STM32F1xx_HAL_Driver/Src\stm32f1xx_hal_dma.c ****   
 788:C:/Users/vovua/STM32Cube/Repository/STM32Cube_FW_F1_V1.8.4/Drivers/STM32F1xx_HAL_Driver/Src\stm32f1xx_hal_dma.c ****   /* Release Lock */
 789:C:/Users/vovua/STM32Cube/Repository/STM32Cube_FW_F1_V1.8.4/Drivers/STM32F1xx_HAL_Driver/Src\stm32f1xx_hal_dma.c ****   __HAL_UNLOCK(hdma);
 790:C:/Users/vovua/STM32Cube/Repository/STM32Cube_FW_F1_V1.8.4/Drivers/STM32F1xx_HAL_Driver/Src\stm32f1xx_hal_dma.c ****   
 791:C:/Users/vovua/STM32Cube/Repository/STM32Cube_FW_F1_V1.8.4/Drivers/STM32F1xx_HAL_Driver/Src\stm32f1xx_hal_dma.c ****   return status;
 792:C:/Users/vovua/STM32Cube/Repository/STM32Cube_FW_F1_V1.8.4/Drivers/STM32F1xx_HAL_Driver/Src\stm32f1xx_hal_dma.c **** }
 793:C:/Users/vovua/STM32Cube/Repository/STM32Cube_FW_F1_V1.8.4/Drivers/STM32F1xx_HAL_Driver/Src\stm32f1xx_hal_dma.c ****   
 794:C:/Users/vovua/STM32Cube/Repository/STM32Cube_FW_F1_V1.8.4/Drivers/STM32F1xx_HAL_Driver/Src\stm32f1xx_hal_dma.c **** /**
 795:C:/Users/vovua/STM32Cube/Repository/STM32Cube_FW_F1_V1.8.4/Drivers/STM32F1xx_HAL_Driver/Src\stm32f1xx_hal_dma.c ****   * @}
 796:C:/Users/vovua/STM32Cube/Repository/STM32Cube_FW_F1_V1.8.4/Drivers/STM32F1xx_HAL_Driver/Src\stm32f1xx_hal_dma.c ****   */
 797:C:/Users/vovua/STM32Cube/Repository/STM32Cube_FW_F1_V1.8.4/Drivers/STM32F1xx_HAL_Driver/Src\stm32f1xx_hal_dma.c **** 
 798:C:/Users/vovua/STM32Cube/Repository/STM32Cube_FW_F1_V1.8.4/Drivers/STM32F1xx_HAL_Driver/Src\stm32f1xx_hal_dma.c **** /** @defgroup DMA_Exported_Functions_Group3 Peripheral State and Errors functions
 799:C:/Users/vovua/STM32Cube/Repository/STM32Cube_FW_F1_V1.8.4/Drivers/STM32F1xx_HAL_Driver/Src\stm32f1xx_hal_dma.c ****   *  @brief    Peripheral State and Errors functions
 800:C:/Users/vovua/STM32Cube/Repository/STM32Cube_FW_F1_V1.8.4/Drivers/STM32F1xx_HAL_Driver/Src\stm32f1xx_hal_dma.c ****   *
 801:C:/Users/vovua/STM32Cube/Repository/STM32Cube_FW_F1_V1.8.4/Drivers/STM32F1xx_HAL_Driver/Src\stm32f1xx_hal_dma.c **** @verbatim
 802:C:/Users/vovua/STM32Cube/Repository/STM32Cube_FW_F1_V1.8.4/Drivers/STM32F1xx_HAL_Driver/Src\stm32f1xx_hal_dma.c ****  ===============================================================================
 803:C:/Users/vovua/STM32Cube/Repository/STM32Cube_FW_F1_V1.8.4/Drivers/STM32F1xx_HAL_Driver/Src\stm32f1xx_hal_dma.c ****             ##### Peripheral State and Errors functions #####
 804:C:/Users/vovua/STM32Cube/Repository/STM32Cube_FW_F1_V1.8.4/Drivers/STM32F1xx_HAL_Driver/Src\stm32f1xx_hal_dma.c ****  ===============================================================================  
 805:C:/Users/vovua/STM32Cube/Repository/STM32Cube_FW_F1_V1.8.4/Drivers/STM32F1xx_HAL_Driver/Src\stm32f1xx_hal_dma.c ****     [..]
 806:C:/Users/vovua/STM32Cube/Repository/STM32Cube_FW_F1_V1.8.4/Drivers/STM32F1xx_HAL_Driver/Src\stm32f1xx_hal_dma.c ****     This subsection provides functions allowing to
 807:C:/Users/vovua/STM32Cube/Repository/STM32Cube_FW_F1_V1.8.4/Drivers/STM32F1xx_HAL_Driver/Src\stm32f1xx_hal_dma.c ****       (+) Check the DMA state
 808:C:/Users/vovua/STM32Cube/Repository/STM32Cube_FW_F1_V1.8.4/Drivers/STM32F1xx_HAL_Driver/Src\stm32f1xx_hal_dma.c ****       (+) Get error code
 809:C:/Users/vovua/STM32Cube/Repository/STM32Cube_FW_F1_V1.8.4/Drivers/STM32F1xx_HAL_Driver/Src\stm32f1xx_hal_dma.c **** 
 810:C:/Users/vovua/STM32Cube/Repository/STM32Cube_FW_F1_V1.8.4/Drivers/STM32F1xx_HAL_Driver/Src\stm32f1xx_hal_dma.c **** @endverbatim
 811:C:/Users/vovua/STM32Cube/Repository/STM32Cube_FW_F1_V1.8.4/Drivers/STM32F1xx_HAL_Driver/Src\stm32f1xx_hal_dma.c ****   * @{
 812:C:/Users/vovua/STM32Cube/Repository/STM32Cube_FW_F1_V1.8.4/Drivers/STM32F1xx_HAL_Driver/Src\stm32f1xx_hal_dma.c ****   */
 813:C:/Users/vovua/STM32Cube/Repository/STM32Cube_FW_F1_V1.8.4/Drivers/STM32F1xx_HAL_Driver/Src\stm32f1xx_hal_dma.c **** 
 814:C:/Users/vovua/STM32Cube/Repository/STM32Cube_FW_F1_V1.8.4/Drivers/STM32F1xx_HAL_Driver/Src\stm32f1xx_hal_dma.c **** /**
 815:C:/Users/vovua/STM32Cube/Repository/STM32Cube_FW_F1_V1.8.4/Drivers/STM32F1xx_HAL_Driver/Src\stm32f1xx_hal_dma.c ****   * @brief  Return the DMA hande state.
 816:C:/Users/vovua/STM32Cube/Repository/STM32Cube_FW_F1_V1.8.4/Drivers/STM32F1xx_HAL_Driver/Src\stm32f1xx_hal_dma.c ****   * @param  hdma: pointer to a DMA_HandleTypeDef structure that contains
 817:C:/Users/vovua/STM32Cube/Repository/STM32Cube_FW_F1_V1.8.4/Drivers/STM32F1xx_HAL_Driver/Src\stm32f1xx_hal_dma.c ****   *               the configuration information for the specified DMA Channel.
 818:C:/Users/vovua/STM32Cube/Repository/STM32Cube_FW_F1_V1.8.4/Drivers/STM32F1xx_HAL_Driver/Src\stm32f1xx_hal_dma.c ****   * @retval HAL state
 819:C:/Users/vovua/STM32Cube/Repository/STM32Cube_FW_F1_V1.8.4/Drivers/STM32F1xx_HAL_Driver/Src\stm32f1xx_hal_dma.c ****   */
 820:C:/Users/vovua/STM32Cube/Repository/STM32Cube_FW_F1_V1.8.4/Drivers/STM32F1xx_HAL_Driver/Src\stm32f1xx_hal_dma.c **** HAL_DMA_StateTypeDef HAL_DMA_GetState(DMA_HandleTypeDef *hdma)
 821:C:/Users/vovua/STM32Cube/Repository/STM32Cube_FW_F1_V1.8.4/Drivers/STM32F1xx_HAL_Driver/Src\stm32f1xx_hal_dma.c **** {
 822:C:/Users/vovua/STM32Cube/Repository/STM32Cube_FW_F1_V1.8.4/Drivers/STM32F1xx_HAL_Driver/Src\stm32f1xx_hal_dma.c ****   /* Return DMA handle state */
 823:C:/Users/vovua/STM32Cube/Repository/STM32Cube_FW_F1_V1.8.4/Drivers/STM32F1xx_HAL_Driver/Src\stm32f1xx_hal_dma.c ****   return hdma->State;
 824:C:/Users/vovua/STM32Cube/Repository/STM32Cube_FW_F1_V1.8.4/Drivers/STM32F1xx_HAL_Driver/Src\stm32f1xx_hal_dma.c **** }
 825:C:/Users/vovua/STM32Cube/Repository/STM32Cube_FW_F1_V1.8.4/Drivers/STM32F1xx_HAL_Driver/Src\stm32f1xx_hal_dma.c **** 
 826:C:/Users/vovua/STM32Cube/Repository/STM32Cube_FW_F1_V1.8.4/Drivers/STM32F1xx_HAL_Driver/Src\stm32f1xx_hal_dma.c **** /**
 827:C:/Users/vovua/STM32Cube/Repository/STM32Cube_FW_F1_V1.8.4/Drivers/STM32F1xx_HAL_Driver/Src\stm32f1xx_hal_dma.c ****   * @brief  Return the DMA error code.
 828:C:/Users/vovua/STM32Cube/Repository/STM32Cube_FW_F1_V1.8.4/Drivers/STM32F1xx_HAL_Driver/Src\stm32f1xx_hal_dma.c ****   * @param  hdma : pointer to a DMA_HandleTypeDef structure that contains
 829:C:/Users/vovua/STM32Cube/Repository/STM32Cube_FW_F1_V1.8.4/Drivers/STM32F1xx_HAL_Driver/Src\stm32f1xx_hal_dma.c ****   *              the configuration information for the specified DMA Channel.
 830:C:/Users/vovua/STM32Cube/Repository/STM32Cube_FW_F1_V1.8.4/Drivers/STM32F1xx_HAL_Driver/Src\stm32f1xx_hal_dma.c ****   * @retval DMA Error Code
ARM GAS  C:\Users\vovua\AppData\Local\Temp\cc7FFceq.s 			page 16


 831:C:/Users/vovua/STM32Cube/Repository/STM32Cube_FW_F1_V1.8.4/Drivers/STM32F1xx_HAL_Driver/Src\stm32f1xx_hal_dma.c ****   */
 832:C:/Users/vovua/STM32Cube/Repository/STM32Cube_FW_F1_V1.8.4/Drivers/STM32F1xx_HAL_Driver/Src\stm32f1xx_hal_dma.c **** uint32_t HAL_DMA_GetError(DMA_HandleTypeDef *hdma)
 833:C:/Users/vovua/STM32Cube/Repository/STM32Cube_FW_F1_V1.8.4/Drivers/STM32F1xx_HAL_Driver/Src\stm32f1xx_hal_dma.c **** {
 834:C:/Users/vovua/STM32Cube/Repository/STM32Cube_FW_F1_V1.8.4/Drivers/STM32F1xx_HAL_Driver/Src\stm32f1xx_hal_dma.c ****   return hdma->ErrorCode;
 835:C:/Users/vovua/STM32Cube/Repository/STM32Cube_FW_F1_V1.8.4/Drivers/STM32F1xx_HAL_Driver/Src\stm32f1xx_hal_dma.c **** }
 836:C:/Users/vovua/STM32Cube/Repository/STM32Cube_FW_F1_V1.8.4/Drivers/STM32F1xx_HAL_Driver/Src\stm32f1xx_hal_dma.c **** 
 837:C:/Users/vovua/STM32Cube/Repository/STM32Cube_FW_F1_V1.8.4/Drivers/STM32F1xx_HAL_Driver/Src\stm32f1xx_hal_dma.c **** /**
 838:C:/Users/vovua/STM32Cube/Repository/STM32Cube_FW_F1_V1.8.4/Drivers/STM32F1xx_HAL_Driver/Src\stm32f1xx_hal_dma.c ****   * @}
 839:C:/Users/vovua/STM32Cube/Repository/STM32Cube_FW_F1_V1.8.4/Drivers/STM32F1xx_HAL_Driver/Src\stm32f1xx_hal_dma.c ****   */
 840:C:/Users/vovua/STM32Cube/Repository/STM32Cube_FW_F1_V1.8.4/Drivers/STM32F1xx_HAL_Driver/Src\stm32f1xx_hal_dma.c **** 
 841:C:/Users/vovua/STM32Cube/Repository/STM32Cube_FW_F1_V1.8.4/Drivers/STM32F1xx_HAL_Driver/Src\stm32f1xx_hal_dma.c **** /**
 842:C:/Users/vovua/STM32Cube/Repository/STM32Cube_FW_F1_V1.8.4/Drivers/STM32F1xx_HAL_Driver/Src\stm32f1xx_hal_dma.c ****   * @}
 843:C:/Users/vovua/STM32Cube/Repository/STM32Cube_FW_F1_V1.8.4/Drivers/STM32F1xx_HAL_Driver/Src\stm32f1xx_hal_dma.c ****   */
 844:C:/Users/vovua/STM32Cube/Repository/STM32Cube_FW_F1_V1.8.4/Drivers/STM32F1xx_HAL_Driver/Src\stm32f1xx_hal_dma.c **** 
 845:C:/Users/vovua/STM32Cube/Repository/STM32Cube_FW_F1_V1.8.4/Drivers/STM32F1xx_HAL_Driver/Src\stm32f1xx_hal_dma.c **** /** @addtogroup DMA_Private_Functions
 846:C:/Users/vovua/STM32Cube/Repository/STM32Cube_FW_F1_V1.8.4/Drivers/STM32F1xx_HAL_Driver/Src\stm32f1xx_hal_dma.c ****   * @{
 847:C:/Users/vovua/STM32Cube/Repository/STM32Cube_FW_F1_V1.8.4/Drivers/STM32F1xx_HAL_Driver/Src\stm32f1xx_hal_dma.c ****   */
 848:C:/Users/vovua/STM32Cube/Repository/STM32Cube_FW_F1_V1.8.4/Drivers/STM32F1xx_HAL_Driver/Src\stm32f1xx_hal_dma.c **** 
 849:C:/Users/vovua/STM32Cube/Repository/STM32Cube_FW_F1_V1.8.4/Drivers/STM32F1xx_HAL_Driver/Src\stm32f1xx_hal_dma.c **** /**
 850:C:/Users/vovua/STM32Cube/Repository/STM32Cube_FW_F1_V1.8.4/Drivers/STM32F1xx_HAL_Driver/Src\stm32f1xx_hal_dma.c ****   * @brief  Sets the DMA Transfer parameter.
 851:C:/Users/vovua/STM32Cube/Repository/STM32Cube_FW_F1_V1.8.4/Drivers/STM32F1xx_HAL_Driver/Src\stm32f1xx_hal_dma.c ****   * @param  hdma:       pointer to a DMA_HandleTypeDef structure that contains
 852:C:/Users/vovua/STM32Cube/Repository/STM32Cube_FW_F1_V1.8.4/Drivers/STM32F1xx_HAL_Driver/Src\stm32f1xx_hal_dma.c ****   *                     the configuration information for the specified DMA Channel.
 853:C:/Users/vovua/STM32Cube/Repository/STM32Cube_FW_F1_V1.8.4/Drivers/STM32F1xx_HAL_Driver/Src\stm32f1xx_hal_dma.c ****   * @param  SrcAddress: The source memory Buffer address
 854:C:/Users/vovua/STM32Cube/Repository/STM32Cube_FW_F1_V1.8.4/Drivers/STM32F1xx_HAL_Driver/Src\stm32f1xx_hal_dma.c ****   * @param  DstAddress: The destination memory Buffer address
 855:C:/Users/vovua/STM32Cube/Repository/STM32Cube_FW_F1_V1.8.4/Drivers/STM32F1xx_HAL_Driver/Src\stm32f1xx_hal_dma.c ****   * @param  DataLength: The length of data to be transferred from source to destination
 856:C:/Users/vovua/STM32Cube/Repository/STM32Cube_FW_F1_V1.8.4/Drivers/STM32F1xx_HAL_Driver/Src\stm32f1xx_hal_dma.c ****   * @retval HAL status
 857:C:/Users/vovua/STM32Cube/Repository/STM32Cube_FW_F1_V1.8.4/Drivers/STM32F1xx_HAL_Driver/Src\stm32f1xx_hal_dma.c ****   */
 858:C:/Users/vovua/STM32Cube/Repository/STM32Cube_FW_F1_V1.8.4/Drivers/STM32F1xx_HAL_Driver/Src\stm32f1xx_hal_dma.c **** static void DMA_SetConfig(DMA_HandleTypeDef *hdma, uint32_t SrcAddress, uint32_t DstAddress, uint32
 859:C:/Users/vovua/STM32Cube/Repository/STM32Cube_FW_F1_V1.8.4/Drivers/STM32F1xx_HAL_Driver/Src\stm32f1xx_hal_dma.c **** {
  27              		.loc 1 859 1 view -0
  28              		.cfi_startproc
  29              		@ args = 0, pretend = 0, frame = 0
  30              		@ frame_needed = 0, uses_anonymous_args = 0
  31              		@ link register save eliminated.
  32              		.loc 1 859 1 is_stmt 0 view .LVU1
  33 0000 30B4     		push	{r4, r5}
  34              	.LCFI0:
  35              		.cfi_def_cfa_offset 8
  36              		.cfi_offset 4, -8
  37              		.cfi_offset 5, -4
 860:C:/Users/vovua/STM32Cube/Repository/STM32Cube_FW_F1_V1.8.4/Drivers/STM32F1xx_HAL_Driver/Src\stm32f1xx_hal_dma.c ****   /* Clear all flags */
 861:C:/Users/vovua/STM32Cube/Repository/STM32Cube_FW_F1_V1.8.4/Drivers/STM32F1xx_HAL_Driver/Src\stm32f1xx_hal_dma.c ****   hdma->DmaBaseAddress->IFCR = (DMA_ISR_GIF1 << hdma->ChannelIndex);
  38              		.loc 1 861 3 is_stmt 1 view .LVU2
  39              		.loc 1 861 46 is_stmt 0 view .LVU3
  40 0002 0124     		movs	r4, #1
  41 0004 056C     		ldr	r5, [r0, #64]
  42 0006 AC40     		lsls	r4, r4, r5
  43              		.loc 1 861 30 view .LVU4
  44 0008 C56B     		ldr	r5, [r0, #60]
  45 000a 6C60     		str	r4, [r5, #4]
 862:C:/Users/vovua/STM32Cube/Repository/STM32Cube_FW_F1_V1.8.4/Drivers/STM32F1xx_HAL_Driver/Src\stm32f1xx_hal_dma.c **** 
 863:C:/Users/vovua/STM32Cube/Repository/STM32Cube_FW_F1_V1.8.4/Drivers/STM32F1xx_HAL_Driver/Src\stm32f1xx_hal_dma.c ****   /* Configure DMA Channel data length */
 864:C:/Users/vovua/STM32Cube/Repository/STM32Cube_FW_F1_V1.8.4/Drivers/STM32F1xx_HAL_Driver/Src\stm32f1xx_hal_dma.c ****   hdma->Instance->CNDTR = DataLength;
  46              		.loc 1 864 3 is_stmt 1 view .LVU5
  47              		.loc 1 864 7 is_stmt 0 view .LVU6
  48 000c 0468     		ldr	r4, [r0]
  49              		.loc 1 864 25 view .LVU7
ARM GAS  C:\Users\vovua\AppData\Local\Temp\cc7FFceq.s 			page 17


  50 000e 6360     		str	r3, [r4, #4]
 865:C:/Users/vovua/STM32Cube/Repository/STM32Cube_FW_F1_V1.8.4/Drivers/STM32F1xx_HAL_Driver/Src\stm32f1xx_hal_dma.c **** 
 866:C:/Users/vovua/STM32Cube/Repository/STM32Cube_FW_F1_V1.8.4/Drivers/STM32F1xx_HAL_Driver/Src\stm32f1xx_hal_dma.c ****   /* Memory to Peripheral */
 867:C:/Users/vovua/STM32Cube/Repository/STM32Cube_FW_F1_V1.8.4/Drivers/STM32F1xx_HAL_Driver/Src\stm32f1xx_hal_dma.c ****   if((hdma->Init.Direction) == DMA_MEMORY_TO_PERIPH)
  51              		.loc 1 867 3 is_stmt 1 view .LVU8
  52              		.loc 1 867 17 is_stmt 0 view .LVU9
  53 0010 4368     		ldr	r3, [r0, #4]
  54              	.LVL1:
  55              		.loc 1 867 5 view .LVU10
  56 0012 102B     		cmp	r3, #16
  57 0014 05D0     		beq	.L5
 868:C:/Users/vovua/STM32Cube/Repository/STM32Cube_FW_F1_V1.8.4/Drivers/STM32F1xx_HAL_Driver/Src\stm32f1xx_hal_dma.c ****   {
 869:C:/Users/vovua/STM32Cube/Repository/STM32Cube_FW_F1_V1.8.4/Drivers/STM32F1xx_HAL_Driver/Src\stm32f1xx_hal_dma.c ****     /* Configure DMA Channel destination address */
 870:C:/Users/vovua/STM32Cube/Repository/STM32Cube_FW_F1_V1.8.4/Drivers/STM32F1xx_HAL_Driver/Src\stm32f1xx_hal_dma.c ****     hdma->Instance->CPAR = DstAddress;
 871:C:/Users/vovua/STM32Cube/Repository/STM32Cube_FW_F1_V1.8.4/Drivers/STM32F1xx_HAL_Driver/Src\stm32f1xx_hal_dma.c **** 
 872:C:/Users/vovua/STM32Cube/Repository/STM32Cube_FW_F1_V1.8.4/Drivers/STM32F1xx_HAL_Driver/Src\stm32f1xx_hal_dma.c ****     /* Configure DMA Channel source address */
 873:C:/Users/vovua/STM32Cube/Repository/STM32Cube_FW_F1_V1.8.4/Drivers/STM32F1xx_HAL_Driver/Src\stm32f1xx_hal_dma.c ****     hdma->Instance->CMAR = SrcAddress;
 874:C:/Users/vovua/STM32Cube/Repository/STM32Cube_FW_F1_V1.8.4/Drivers/STM32F1xx_HAL_Driver/Src\stm32f1xx_hal_dma.c ****   }
 875:C:/Users/vovua/STM32Cube/Repository/STM32Cube_FW_F1_V1.8.4/Drivers/STM32F1xx_HAL_Driver/Src\stm32f1xx_hal_dma.c ****   /* Peripheral to Memory */
 876:C:/Users/vovua/STM32Cube/Repository/STM32Cube_FW_F1_V1.8.4/Drivers/STM32F1xx_HAL_Driver/Src\stm32f1xx_hal_dma.c ****   else
 877:C:/Users/vovua/STM32Cube/Repository/STM32Cube_FW_F1_V1.8.4/Drivers/STM32F1xx_HAL_Driver/Src\stm32f1xx_hal_dma.c ****   {
 878:C:/Users/vovua/STM32Cube/Repository/STM32Cube_FW_F1_V1.8.4/Drivers/STM32F1xx_HAL_Driver/Src\stm32f1xx_hal_dma.c ****     /* Configure DMA Channel source address */
 879:C:/Users/vovua/STM32Cube/Repository/STM32Cube_FW_F1_V1.8.4/Drivers/STM32F1xx_HAL_Driver/Src\stm32f1xx_hal_dma.c ****     hdma->Instance->CPAR = SrcAddress;
  58              		.loc 1 879 5 is_stmt 1 view .LVU11
  59              		.loc 1 879 9 is_stmt 0 view .LVU12
  60 0016 0368     		ldr	r3, [r0]
  61              		.loc 1 879 26 view .LVU13
  62 0018 9960     		str	r1, [r3, #8]
  63              	.LVL2:
 880:C:/Users/vovua/STM32Cube/Repository/STM32Cube_FW_F1_V1.8.4/Drivers/STM32F1xx_HAL_Driver/Src\stm32f1xx_hal_dma.c **** 
 881:C:/Users/vovua/STM32Cube/Repository/STM32Cube_FW_F1_V1.8.4/Drivers/STM32F1xx_HAL_Driver/Src\stm32f1xx_hal_dma.c ****     /* Configure DMA Channel destination address */
 882:C:/Users/vovua/STM32Cube/Repository/STM32Cube_FW_F1_V1.8.4/Drivers/STM32F1xx_HAL_Driver/Src\stm32f1xx_hal_dma.c ****     hdma->Instance->CMAR = DstAddress;
  64              		.loc 1 882 5 is_stmt 1 view .LVU14
  65              		.loc 1 882 9 is_stmt 0 view .LVU15
  66 001a 0368     		ldr	r3, [r0]
  67              		.loc 1 882 26 view .LVU16
  68 001c DA60     		str	r2, [r3, #12]
  69              	.L1:
 883:C:/Users/vovua/STM32Cube/Repository/STM32Cube_FW_F1_V1.8.4/Drivers/STM32F1xx_HAL_Driver/Src\stm32f1xx_hal_dma.c ****   }
 884:C:/Users/vovua/STM32Cube/Repository/STM32Cube_FW_F1_V1.8.4/Drivers/STM32F1xx_HAL_Driver/Src\stm32f1xx_hal_dma.c **** }
  70              		.loc 1 884 1 view .LVU17
  71 001e 30BC     		pop	{r4, r5}
  72              	.LCFI1:
  73              		.cfi_remember_state
  74              		.cfi_restore 5
  75              		.cfi_restore 4
  76              		.cfi_def_cfa_offset 0
  77 0020 7047     		bx	lr
  78              	.LVL3:
  79              	.L5:
  80              	.LCFI2:
  81              		.cfi_restore_state
 870:C:/Users/vovua/STM32Cube/Repository/STM32Cube_FW_F1_V1.8.4/Drivers/STM32F1xx_HAL_Driver/Src\stm32f1xx_hal_dma.c **** 
  82              		.loc 1 870 5 is_stmt 1 view .LVU18
 870:C:/Users/vovua/STM32Cube/Repository/STM32Cube_FW_F1_V1.8.4/Drivers/STM32F1xx_HAL_Driver/Src\stm32f1xx_hal_dma.c **** 
  83              		.loc 1 870 9 is_stmt 0 view .LVU19
  84 0022 0368     		ldr	r3, [r0]
ARM GAS  C:\Users\vovua\AppData\Local\Temp\cc7FFceq.s 			page 18


 870:C:/Users/vovua/STM32Cube/Repository/STM32Cube_FW_F1_V1.8.4/Drivers/STM32F1xx_HAL_Driver/Src\stm32f1xx_hal_dma.c **** 
  85              		.loc 1 870 26 view .LVU20
  86 0024 9A60     		str	r2, [r3, #8]
  87              	.LVL4:
 873:C:/Users/vovua/STM32Cube/Repository/STM32Cube_FW_F1_V1.8.4/Drivers/STM32F1xx_HAL_Driver/Src\stm32f1xx_hal_dma.c ****   }
  88              		.loc 1 873 5 is_stmt 1 view .LVU21
 873:C:/Users/vovua/STM32Cube/Repository/STM32Cube_FW_F1_V1.8.4/Drivers/STM32F1xx_HAL_Driver/Src\stm32f1xx_hal_dma.c ****   }
  89              		.loc 1 873 9 is_stmt 0 view .LVU22
  90 0026 0368     		ldr	r3, [r0]
 873:C:/Users/vovua/STM32Cube/Repository/STM32Cube_FW_F1_V1.8.4/Drivers/STM32F1xx_HAL_Driver/Src\stm32f1xx_hal_dma.c ****   }
  91              		.loc 1 873 26 view .LVU23
  92 0028 D960     		str	r1, [r3, #12]
  93 002a F8E7     		b	.L1
  94              		.cfi_endproc
  95              	.LFE77:
  97              		.section	.text.HAL_DMA_Init,"ax",%progbits
  98              		.align	1
  99              		.global	HAL_DMA_Init
 100              		.syntax unified
 101              		.thumb
 102              		.thumb_func
 104              	HAL_DMA_Init:
 105              	.LVL5:
 106              	.LFB65:
 144:C:/Users/vovua/STM32Cube/Repository/STM32Cube_FW_F1_V1.8.4/Drivers/STM32F1xx_HAL_Driver/Src\stm32f1xx_hal_dma.c ****   uint32_t tmp = 0U;
 107              		.loc 1 144 1 is_stmt 1 view -0
 108              		.cfi_startproc
 109              		@ args = 0, pretend = 0, frame = 0
 110              		@ frame_needed = 0, uses_anonymous_args = 0
 111              		@ link register save eliminated.
 145:C:/Users/vovua/STM32Cube/Repository/STM32Cube_FW_F1_V1.8.4/Drivers/STM32F1xx_HAL_Driver/Src\stm32f1xx_hal_dma.c **** 
 112              		.loc 1 145 3 view .LVU25
 148:C:/Users/vovua/STM32Cube/Repository/STM32Cube_FW_F1_V1.8.4/Drivers/STM32F1xx_HAL_Driver/Src\stm32f1xx_hal_dma.c ****   {
 113              		.loc 1 148 3 view .LVU26
 148:C:/Users/vovua/STM32Cube/Repository/STM32Cube_FW_F1_V1.8.4/Drivers/STM32F1xx_HAL_Driver/Src\stm32f1xx_hal_dma.c ****   {
 114              		.loc 1 148 5 is_stmt 0 view .LVU27
 115 0000 60B3     		cbz	r0, .L8
 144:C:/Users/vovua/STM32Cube/Repository/STM32Cube_FW_F1_V1.8.4/Drivers/STM32F1xx_HAL_Driver/Src\stm32f1xx_hal_dma.c ****   uint32_t tmp = 0U;
 116              		.loc 1 144 1 view .LVU28
 117 0002 10B4     		push	{r4}
 118              	.LCFI3:
 119              		.cfi_def_cfa_offset 4
 120              		.cfi_offset 4, -4
 121 0004 0246     		mov	r2, r0
 154:C:/Users/vovua/STM32Cube/Repository/STM32Cube_FW_F1_V1.8.4/Drivers/STM32F1xx_HAL_Driver/Src\stm32f1xx_hal_dma.c ****   assert_param(IS_DMA_DIRECTION(hdma->Init.Direction));
 122              		.loc 1 154 3 is_stmt 1 view .LVU29
 155:C:/Users/vovua/STM32Cube/Repository/STM32Cube_FW_F1_V1.8.4/Drivers/STM32F1xx_HAL_Driver/Src\stm32f1xx_hal_dma.c ****   assert_param(IS_DMA_PERIPHERAL_INC_STATE(hdma->Init.PeriphInc));
 123              		.loc 1 155 3 view .LVU30
 156:C:/Users/vovua/STM32Cube/Repository/STM32Cube_FW_F1_V1.8.4/Drivers/STM32F1xx_HAL_Driver/Src\stm32f1xx_hal_dma.c ****   assert_param(IS_DMA_MEMORY_INC_STATE(hdma->Init.MemInc));
 124              		.loc 1 156 3 view .LVU31
 157:C:/Users/vovua/STM32Cube/Repository/STM32Cube_FW_F1_V1.8.4/Drivers/STM32F1xx_HAL_Driver/Src\stm32f1xx_hal_dma.c ****   assert_param(IS_DMA_PERIPHERAL_DATA_SIZE(hdma->Init.PeriphDataAlignment));
 125              		.loc 1 157 3 view .LVU32
 158:C:/Users/vovua/STM32Cube/Repository/STM32Cube_FW_F1_V1.8.4/Drivers/STM32F1xx_HAL_Driver/Src\stm32f1xx_hal_dma.c ****   assert_param(IS_DMA_MEMORY_DATA_SIZE(hdma->Init.MemDataAlignment));
 126              		.loc 1 158 3 view .LVU33
 159:C:/Users/vovua/STM32Cube/Repository/STM32Cube_FW_F1_V1.8.4/Drivers/STM32F1xx_HAL_Driver/Src\stm32f1xx_hal_dma.c ****   assert_param(IS_DMA_MODE(hdma->Init.Mode));
 127              		.loc 1 159 3 view .LVU34
 160:C:/Users/vovua/STM32Cube/Repository/STM32Cube_FW_F1_V1.8.4/Drivers/STM32F1xx_HAL_Driver/Src\stm32f1xx_hal_dma.c ****   assert_param(IS_DMA_PRIORITY(hdma->Init.Priority));
ARM GAS  C:\Users\vovua\AppData\Local\Temp\cc7FFceq.s 			page 19


 128              		.loc 1 160 3 view .LVU35
 161:C:/Users/vovua/STM32Cube/Repository/STM32Cube_FW_F1_V1.8.4/Drivers/STM32F1xx_HAL_Driver/Src\stm32f1xx_hal_dma.c **** 
 129              		.loc 1 161 3 view .LVU36
 179:C:/Users/vovua/STM32Cube/Repository/STM32Cube_FW_F1_V1.8.4/Drivers/STM32F1xx_HAL_Driver/Src\stm32f1xx_hal_dma.c ****   hdma->DmaBaseAddress = DMA1;
 130              		.loc 1 179 3 view .LVU37
 179:C:/Users/vovua/STM32Cube/Repository/STM32Cube_FW_F1_V1.8.4/Drivers/STM32F1xx_HAL_Driver/Src\stm32f1xx_hal_dma.c ****   hdma->DmaBaseAddress = DMA1;
 131              		.loc 1 179 40 is_stmt 0 view .LVU38
 132 0006 0168     		ldr	r1, [r0]
 179:C:/Users/vovua/STM32Cube/Repository/STM32Cube_FW_F1_V1.8.4/Drivers/STM32F1xx_HAL_Driver/Src\stm32f1xx_hal_dma.c ****   hdma->DmaBaseAddress = DMA1;
 133              		.loc 1 179 51 view .LVU39
 134 0008 154B     		ldr	r3, .L13
 135 000a 0B44     		add	r3, r3, r1
 179:C:/Users/vovua/STM32Cube/Repository/STM32Cube_FW_F1_V1.8.4/Drivers/STM32F1xx_HAL_Driver/Src\stm32f1xx_hal_dma.c ****   hdma->DmaBaseAddress = DMA1;
 136              		.loc 1 179 78 view .LVU40
 137 000c 1548     		ldr	r0, .L13+4
 138              	.LVL6:
 179:C:/Users/vovua/STM32Cube/Repository/STM32Cube_FW_F1_V1.8.4/Drivers/STM32F1xx_HAL_Driver/Src\stm32f1xx_hal_dma.c ****   hdma->DmaBaseAddress = DMA1;
 139              		.loc 1 179 78 view .LVU41
 140 000e A0FB0303 		umull	r0, r3, r0, r3
 141 0012 1B09     		lsrs	r3, r3, #4
 179:C:/Users/vovua/STM32Cube/Repository/STM32Cube_FW_F1_V1.8.4/Drivers/STM32F1xx_HAL_Driver/Src\stm32f1xx_hal_dma.c ****   hdma->DmaBaseAddress = DMA1;
 142              		.loc 1 179 133 view .LVU42
 143 0014 9B00     		lsls	r3, r3, #2
 179:C:/Users/vovua/STM32Cube/Repository/STM32Cube_FW_F1_V1.8.4/Drivers/STM32F1xx_HAL_Driver/Src\stm32f1xx_hal_dma.c ****   hdma->DmaBaseAddress = DMA1;
 144              		.loc 1 179 22 view .LVU43
 145 0016 1364     		str	r3, [r2, #64]
 180:C:/Users/vovua/STM32Cube/Repository/STM32Cube_FW_F1_V1.8.4/Drivers/STM32F1xx_HAL_Driver/Src\stm32f1xx_hal_dma.c **** #endif /* DMA2 */
 146              		.loc 1 180 3 is_stmt 1 view .LVU44
 180:C:/Users/vovua/STM32Cube/Repository/STM32Cube_FW_F1_V1.8.4/Drivers/STM32F1xx_HAL_Driver/Src\stm32f1xx_hal_dma.c **** #endif /* DMA2 */
 147              		.loc 1 180 24 is_stmt 0 view .LVU45
 148 0018 134B     		ldr	r3, .L13+8
 149 001a D363     		str	r3, [r2, #60]
 184:C:/Users/vovua/STM32Cube/Repository/STM32Cube_FW_F1_V1.8.4/Drivers/STM32F1xx_HAL_Driver/Src\stm32f1xx_hal_dma.c **** 
 150              		.loc 1 184 3 is_stmt 1 view .LVU46
 184:C:/Users/vovua/STM32Cube/Repository/STM32Cube_FW_F1_V1.8.4/Drivers/STM32F1xx_HAL_Driver/Src\stm32f1xx_hal_dma.c **** 
 151              		.loc 1 184 15 is_stmt 0 view .LVU47
 152 001c 0223     		movs	r3, #2
 153 001e 82F82130 		strb	r3, [r2, #33]
 187:C:/Users/vovua/STM32Cube/Repository/STM32Cube_FW_F1_V1.8.4/Drivers/STM32F1xx_HAL_Driver/Src\stm32f1xx_hal_dma.c **** 
 154              		.loc 1 187 3 is_stmt 1 view .LVU48
 187:C:/Users/vovua/STM32Cube/Repository/STM32Cube_FW_F1_V1.8.4/Drivers/STM32F1xx_HAL_Driver/Src\stm32f1xx_hal_dma.c **** 
 155              		.loc 1 187 7 is_stmt 0 view .LVU49
 156 0022 0868     		ldr	r0, [r1]
 157              	.LVL7:
 190:C:/Users/vovua/STM32Cube/Repository/STM32Cube_FW_F1_V1.8.4/Drivers/STM32F1xx_HAL_Driver/Src\stm32f1xx_hal_dma.c ****                       DMA_CCR_MINC  | DMA_CCR_PINC   | DMA_CCR_CIRC   | \
 158              		.loc 1 190 3 is_stmt 1 view .LVU50
 190:C:/Users/vovua/STM32Cube/Repository/STM32Cube_FW_F1_V1.8.4/Drivers/STM32F1xx_HAL_Driver/Src\stm32f1xx_hal_dma.c ****                       DMA_CCR_MINC  | DMA_CCR_PINC   | DMA_CCR_CIRC   | \
 159              		.loc 1 190 7 is_stmt 0 view .LVU51
 160 0024 20F47F50 		bic	r0, r0, #16320
 161              	.LVL8:
 190:C:/Users/vovua/STM32Cube/Repository/STM32Cube_FW_F1_V1.8.4/Drivers/STM32F1xx_HAL_Driver/Src\stm32f1xx_hal_dma.c ****                       DMA_CCR_MINC  | DMA_CCR_PINC   | DMA_CCR_CIRC   | \
 162              		.loc 1 190 7 view .LVU52
 163 0028 20F03000 		bic	r0, r0, #48
 164              	.LVL9:
 195:C:/Users/vovua/STM32Cube/Repository/STM32Cube_FW_F1_V1.8.4/Drivers/STM32F1xx_HAL_Driver/Src\stm32f1xx_hal_dma.c ****           hdma->Init.PeriphInc           | hdma->Init.MemInc           |
 165              		.loc 1 195 3 is_stmt 1 view .LVU53
 195:C:/Users/vovua/STM32Cube/Repository/STM32Cube_FW_F1_V1.8.4/Drivers/STM32F1xx_HAL_Driver/Src\stm32f1xx_hal_dma.c ****           hdma->Init.PeriphInc           | hdma->Init.MemInc           |
ARM GAS  C:\Users\vovua\AppData\Local\Temp\cc7FFceq.s 			page 20


 166              		.loc 1 195 21 is_stmt 0 view .LVU54
 167 002c 5368     		ldr	r3, [r2, #4]
 195:C:/Users/vovua/STM32Cube/Repository/STM32Cube_FW_F1_V1.8.4/Drivers/STM32F1xx_HAL_Driver/Src\stm32f1xx_hal_dma.c ****           hdma->Init.PeriphInc           | hdma->Init.MemInc           |
 168              		.loc 1 195 39 view .LVU55
 169 002e 9468     		ldr	r4, [r2, #8]
 170 0030 2343     		orrs	r3, r3, r4
 196:C:/Users/vovua/STM32Cube/Repository/STM32Cube_FW_F1_V1.8.4/Drivers/STM32F1xx_HAL_Driver/Src\stm32f1xx_hal_dma.c ****           hdma->Init.PeriphDataAlignment | hdma->Init.MemDataAlignment |
 171              		.loc 1 196 42 view .LVU56
 172 0032 D468     		ldr	r4, [r2, #12]
 173 0034 2343     		orrs	r3, r3, r4
 196:C:/Users/vovua/STM32Cube/Repository/STM32Cube_FW_F1_V1.8.4/Drivers/STM32F1xx_HAL_Driver/Src\stm32f1xx_hal_dma.c ****           hdma->Init.PeriphDataAlignment | hdma->Init.MemDataAlignment |
 174              		.loc 1 196 72 view .LVU57
 175 0036 1469     		ldr	r4, [r2, #16]
 176 0038 2343     		orrs	r3, r3, r4
 197:C:/Users/vovua/STM32Cube/Repository/STM32Cube_FW_F1_V1.8.4/Drivers/STM32F1xx_HAL_Driver/Src\stm32f1xx_hal_dma.c ****           hdma->Init.Mode                | hdma->Init.Priority;
 177              		.loc 1 197 42 view .LVU58
 178 003a 5469     		ldr	r4, [r2, #20]
 179 003c 2343     		orrs	r3, r3, r4
 197:C:/Users/vovua/STM32Cube/Repository/STM32Cube_FW_F1_V1.8.4/Drivers/STM32F1xx_HAL_Driver/Src\stm32f1xx_hal_dma.c ****           hdma->Init.Mode                | hdma->Init.Priority;
 180              		.loc 1 197 72 view .LVU59
 181 003e 9469     		ldr	r4, [r2, #24]
 182 0040 2343     		orrs	r3, r3, r4
 198:C:/Users/vovua/STM32Cube/Repository/STM32Cube_FW_F1_V1.8.4/Drivers/STM32F1xx_HAL_Driver/Src\stm32f1xx_hal_dma.c **** 
 183              		.loc 1 198 42 view .LVU60
 184 0042 D469     		ldr	r4, [r2, #28]
 185 0044 2343     		orrs	r3, r3, r4
 195:C:/Users/vovua/STM32Cube/Repository/STM32Cube_FW_F1_V1.8.4/Drivers/STM32F1xx_HAL_Driver/Src\stm32f1xx_hal_dma.c ****           hdma->Init.PeriphInc           | hdma->Init.MemInc           |
 186              		.loc 1 195 7 view .LVU61
 187 0046 0343     		orrs	r3, r3, r0
 188              	.LVL10:
 201:C:/Users/vovua/STM32Cube/Repository/STM32Cube_FW_F1_V1.8.4/Drivers/STM32F1xx_HAL_Driver/Src\stm32f1xx_hal_dma.c **** 
 189              		.loc 1 201 3 is_stmt 1 view .LVU62
 201:C:/Users/vovua/STM32Cube/Repository/STM32Cube_FW_F1_V1.8.4/Drivers/STM32F1xx_HAL_Driver/Src\stm32f1xx_hal_dma.c **** 
 190              		.loc 1 201 23 is_stmt 0 view .LVU63
 191 0048 0B60     		str	r3, [r1]
 204:C:/Users/vovua/STM32Cube/Repository/STM32Cube_FW_F1_V1.8.4/Drivers/STM32F1xx_HAL_Driver/Src\stm32f1xx_hal_dma.c **** 
 192              		.loc 1 204 3 is_stmt 1 view .LVU64
 204:C:/Users/vovua/STM32Cube/Repository/STM32Cube_FW_F1_V1.8.4/Drivers/STM32F1xx_HAL_Driver/Src\stm32f1xx_hal_dma.c **** 
 193              		.loc 1 204 19 is_stmt 0 view .LVU65
 194 004a 0020     		movs	r0, #0
 195 004c 9063     		str	r0, [r2, #56]
 207:C:/Users/vovua/STM32Cube/Repository/STM32Cube_FW_F1_V1.8.4/Drivers/STM32F1xx_HAL_Driver/Src\stm32f1xx_hal_dma.c ****   /* Allocate lock resource and initialize it */
 196              		.loc 1 207 3 is_stmt 1 view .LVU66
 207:C:/Users/vovua/STM32Cube/Repository/STM32Cube_FW_F1_V1.8.4/Drivers/STM32F1xx_HAL_Driver/Src\stm32f1xx_hal_dma.c ****   /* Allocate lock resource and initialize it */
 197              		.loc 1 207 15 is_stmt 0 view .LVU67
 198 004e 0123     		movs	r3, #1
 199              	.LVL11:
 207:C:/Users/vovua/STM32Cube/Repository/STM32Cube_FW_F1_V1.8.4/Drivers/STM32F1xx_HAL_Driver/Src\stm32f1xx_hal_dma.c ****   /* Allocate lock resource and initialize it */
 200              		.loc 1 207 15 view .LVU68
 201 0050 82F82130 		strb	r3, [r2, #33]
 209:C:/Users/vovua/STM32Cube/Repository/STM32Cube_FW_F1_V1.8.4/Drivers/STM32F1xx_HAL_Driver/Src\stm32f1xx_hal_dma.c **** 
 202              		.loc 1 209 3 is_stmt 1 view .LVU69
 209:C:/Users/vovua/STM32Cube/Repository/STM32Cube_FW_F1_V1.8.4/Drivers/STM32F1xx_HAL_Driver/Src\stm32f1xx_hal_dma.c **** 
 203              		.loc 1 209 14 is_stmt 0 view .LVU70
 204 0054 82F82000 		strb	r0, [r2, #32]
 211:C:/Users/vovua/STM32Cube/Repository/STM32Cube_FW_F1_V1.8.4/Drivers/STM32F1xx_HAL_Driver/Src\stm32f1xx_hal_dma.c **** }
 205              		.loc 1 211 3 is_stmt 1 view .LVU71
ARM GAS  C:\Users\vovua\AppData\Local\Temp\cc7FFceq.s 			page 21


 212:C:/Users/vovua/STM32Cube/Repository/STM32Cube_FW_F1_V1.8.4/Drivers/STM32F1xx_HAL_Driver/Src\stm32f1xx_hal_dma.c **** 
 206              		.loc 1 212 1 is_stmt 0 view .LVU72
 207 0058 10BC     		pop	{r4}
 208              	.LCFI4:
 209              		.cfi_restore 4
 210              		.cfi_def_cfa_offset 0
 211 005a 7047     		bx	lr
 212              	.LVL12:
 213              	.L8:
 150:C:/Users/vovua/STM32Cube/Repository/STM32Cube_FW_F1_V1.8.4/Drivers/STM32F1xx_HAL_Driver/Src\stm32f1xx_hal_dma.c ****   }
 214              		.loc 1 150 12 view .LVU73
 215 005c 0120     		movs	r0, #1
 216              	.LVL13:
 212:C:/Users/vovua/STM32Cube/Repository/STM32Cube_FW_F1_V1.8.4/Drivers/STM32F1xx_HAL_Driver/Src\stm32f1xx_hal_dma.c **** 
 217              		.loc 1 212 1 view .LVU74
 218 005e 7047     		bx	lr
 219              	.L14:
 220              		.align	2
 221              	.L13:
 222 0060 F8FFFDBF 		.word	-1073872904
 223 0064 CDCCCCCC 		.word	-858993459
 224 0068 00000240 		.word	1073872896
 225              		.cfi_endproc
 226              	.LFE65:
 228              		.section	.text.HAL_DMA_DeInit,"ax",%progbits
 229              		.align	1
 230              		.global	HAL_DMA_DeInit
 231              		.syntax unified
 232              		.thumb
 233              		.thumb_func
 235              	HAL_DMA_DeInit:
 236              	.LVL14:
 237              	.LFB66:
 221:C:/Users/vovua/STM32Cube/Repository/STM32Cube_FW_F1_V1.8.4/Drivers/STM32F1xx_HAL_Driver/Src\stm32f1xx_hal_dma.c ****   /* Check the DMA handle allocation */
 238              		.loc 1 221 1 is_stmt 1 view -0
 239              		.cfi_startproc
 240              		@ args = 0, pretend = 0, frame = 0
 241              		@ frame_needed = 0, uses_anonymous_args = 0
 242              		@ link register save eliminated.
 223:C:/Users/vovua/STM32Cube/Repository/STM32Cube_FW_F1_V1.8.4/Drivers/STM32F1xx_HAL_Driver/Src\stm32f1xx_hal_dma.c ****   {
 243              		.loc 1 223 3 view .LVU76
 223:C:/Users/vovua/STM32Cube/Repository/STM32Cube_FW_F1_V1.8.4/Drivers/STM32F1xx_HAL_Driver/Src\stm32f1xx_hal_dma.c ****   {
 244              		.loc 1 223 5 is_stmt 0 view .LVU77
 245 0000 0028     		cmp	r0, #0
 246 0002 29D0     		beq	.L17
 221:C:/Users/vovua/STM32Cube/Repository/STM32Cube_FW_F1_V1.8.4/Drivers/STM32F1xx_HAL_Driver/Src\stm32f1xx_hal_dma.c ****   /* Check the DMA handle allocation */
 247              		.loc 1 221 1 view .LVU78
 248 0004 10B4     		push	{r4}
 249              	.LCFI5:
 250              		.cfi_def_cfa_offset 4
 251              		.cfi_offset 4, -4
 252 0006 0346     		mov	r3, r0
 229:C:/Users/vovua/STM32Cube/Repository/STM32Cube_FW_F1_V1.8.4/Drivers/STM32F1xx_HAL_Driver/Src\stm32f1xx_hal_dma.c **** 
 253              		.loc 1 229 3 is_stmt 1 view .LVU79
 232:C:/Users/vovua/STM32Cube/Repository/STM32Cube_FW_F1_V1.8.4/Drivers/STM32F1xx_HAL_Driver/Src\stm32f1xx_hal_dma.c **** 
 254              		.loc 1 232 3 view .LVU80
 255 0008 0168     		ldr	r1, [r0]
ARM GAS  C:\Users\vovua\AppData\Local\Temp\cc7FFceq.s 			page 22


 256 000a 0A68     		ldr	r2, [r1]
 257 000c 22F00102 		bic	r2, r2, #1
 258 0010 0A60     		str	r2, [r1]
 235:C:/Users/vovua/STM32Cube/Repository/STM32Cube_FW_F1_V1.8.4/Drivers/STM32F1xx_HAL_Driver/Src\stm32f1xx_hal_dma.c **** 
 259              		.loc 1 235 3 view .LVU81
 235:C:/Users/vovua/STM32Cube/Repository/STM32Cube_FW_F1_V1.8.4/Drivers/STM32F1xx_HAL_Driver/Src\stm32f1xx_hal_dma.c **** 
 260              		.loc 1 235 7 is_stmt 0 view .LVU82
 261 0012 0268     		ldr	r2, [r0]
 235:C:/Users/vovua/STM32Cube/Repository/STM32Cube_FW_F1_V1.8.4/Drivers/STM32F1xx_HAL_Driver/Src\stm32f1xx_hal_dma.c **** 
 262              		.loc 1 235 24 view .LVU83
 263 0014 0020     		movs	r0, #0
 264              	.LVL15:
 235:C:/Users/vovua/STM32Cube/Repository/STM32Cube_FW_F1_V1.8.4/Drivers/STM32F1xx_HAL_Driver/Src\stm32f1xx_hal_dma.c **** 
 265              		.loc 1 235 24 view .LVU84
 266 0016 1060     		str	r0, [r2]
 238:C:/Users/vovua/STM32Cube/Repository/STM32Cube_FW_F1_V1.8.4/Drivers/STM32F1xx_HAL_Driver/Src\stm32f1xx_hal_dma.c **** 
 267              		.loc 1 238 3 is_stmt 1 view .LVU85
 238:C:/Users/vovua/STM32Cube/Repository/STM32Cube_FW_F1_V1.8.4/Drivers/STM32F1xx_HAL_Driver/Src\stm32f1xx_hal_dma.c **** 
 268              		.loc 1 238 7 is_stmt 0 view .LVU86
 269 0018 1A68     		ldr	r2, [r3]
 238:C:/Users/vovua/STM32Cube/Repository/STM32Cube_FW_F1_V1.8.4/Drivers/STM32F1xx_HAL_Driver/Src\stm32f1xx_hal_dma.c **** 
 270              		.loc 1 238 25 view .LVU87
 271 001a 5060     		str	r0, [r2, #4]
 241:C:/Users/vovua/STM32Cube/Repository/STM32Cube_FW_F1_V1.8.4/Drivers/STM32F1xx_HAL_Driver/Src\stm32f1xx_hal_dma.c **** 
 272              		.loc 1 241 3 is_stmt 1 view .LVU88
 241:C:/Users/vovua/STM32Cube/Repository/STM32Cube_FW_F1_V1.8.4/Drivers/STM32F1xx_HAL_Driver/Src\stm32f1xx_hal_dma.c **** 
 273              		.loc 1 241 7 is_stmt 0 view .LVU89
 274 001c 1A68     		ldr	r2, [r3]
 241:C:/Users/vovua/STM32Cube/Repository/STM32Cube_FW_F1_V1.8.4/Drivers/STM32F1xx_HAL_Driver/Src\stm32f1xx_hal_dma.c **** 
 275              		.loc 1 241 25 view .LVU90
 276 001e 9060     		str	r0, [r2, #8]
 244:C:/Users/vovua/STM32Cube/Repository/STM32Cube_FW_F1_V1.8.4/Drivers/STM32F1xx_HAL_Driver/Src\stm32f1xx_hal_dma.c **** 
 277              		.loc 1 244 3 is_stmt 1 view .LVU91
 244:C:/Users/vovua/STM32Cube/Repository/STM32Cube_FW_F1_V1.8.4/Drivers/STM32F1xx_HAL_Driver/Src\stm32f1xx_hal_dma.c **** 
 278              		.loc 1 244 7 is_stmt 0 view .LVU92
 279 0020 1A68     		ldr	r2, [r3]
 244:C:/Users/vovua/STM32Cube/Repository/STM32Cube_FW_F1_V1.8.4/Drivers/STM32F1xx_HAL_Driver/Src\stm32f1xx_hal_dma.c **** 
 280              		.loc 1 244 24 view .LVU93
 281 0022 D060     		str	r0, [r2, #12]
 262:C:/Users/vovua/STM32Cube/Repository/STM32Cube_FW_F1_V1.8.4/Drivers/STM32F1xx_HAL_Driver/Src\stm32f1xx_hal_dma.c ****   hdma->DmaBaseAddress = DMA1;
 282              		.loc 1 262 3 is_stmt 1 view .LVU94
 262:C:/Users/vovua/STM32Cube/Repository/STM32Cube_FW_F1_V1.8.4/Drivers/STM32F1xx_HAL_Driver/Src\stm32f1xx_hal_dma.c ****   hdma->DmaBaseAddress = DMA1;
 283              		.loc 1 262 40 is_stmt 0 view .LVU95
 284 0024 1968     		ldr	r1, [r3]
 262:C:/Users/vovua/STM32Cube/Repository/STM32Cube_FW_F1_V1.8.4/Drivers/STM32F1xx_HAL_Driver/Src\stm32f1xx_hal_dma.c ****   hdma->DmaBaseAddress = DMA1;
 285              		.loc 1 262 51 view .LVU96
 286 0026 0D4A     		ldr	r2, .L22
 287 0028 0A44     		add	r2, r2, r1
 262:C:/Users/vovua/STM32Cube/Repository/STM32Cube_FW_F1_V1.8.4/Drivers/STM32F1xx_HAL_Driver/Src\stm32f1xx_hal_dma.c ****   hdma->DmaBaseAddress = DMA1;
 288              		.loc 1 262 78 view .LVU97
 289 002a 0D49     		ldr	r1, .L22+4
 290 002c A1FB0212 		umull	r1, r2, r1, r2
 291 0030 1209     		lsrs	r2, r2, #4
 262:C:/Users/vovua/STM32Cube/Repository/STM32Cube_FW_F1_V1.8.4/Drivers/STM32F1xx_HAL_Driver/Src\stm32f1xx_hal_dma.c ****   hdma->DmaBaseAddress = DMA1;
 292              		.loc 1 262 133 view .LVU98
 293 0032 9200     		lsls	r2, r2, #2
 262:C:/Users/vovua/STM32Cube/Repository/STM32Cube_FW_F1_V1.8.4/Drivers/STM32F1xx_HAL_Driver/Src\stm32f1xx_hal_dma.c ****   hdma->DmaBaseAddress = DMA1;
ARM GAS  C:\Users\vovua\AppData\Local\Temp\cc7FFceq.s 			page 23


 294              		.loc 1 262 22 view .LVU99
 295 0034 1A64     		str	r2, [r3, #64]
 263:C:/Users/vovua/STM32Cube/Repository/STM32Cube_FW_F1_V1.8.4/Drivers/STM32F1xx_HAL_Driver/Src\stm32f1xx_hal_dma.c **** #endif /* DMA2 */
 296              		.loc 1 263 3 is_stmt 1 view .LVU100
 263:C:/Users/vovua/STM32Cube/Repository/STM32Cube_FW_F1_V1.8.4/Drivers/STM32F1xx_HAL_Driver/Src\stm32f1xx_hal_dma.c **** #endif /* DMA2 */
 297              		.loc 1 263 24 is_stmt 0 view .LVU101
 298 0036 0B4C     		ldr	r4, .L22+8
 299 0038 DC63     		str	r4, [r3, #60]
 267:C:/Users/vovua/STM32Cube/Repository/STM32Cube_FW_F1_V1.8.4/Drivers/STM32F1xx_HAL_Driver/Src\stm32f1xx_hal_dma.c **** 
 300              		.loc 1 267 3 is_stmt 1 view .LVU102
 267:C:/Users/vovua/STM32Cube/Repository/STM32Cube_FW_F1_V1.8.4/Drivers/STM32F1xx_HAL_Driver/Src\stm32f1xx_hal_dma.c **** 
 301              		.loc 1 267 46 is_stmt 0 view .LVU103
 302 003a 0121     		movs	r1, #1
 303 003c 01FA02F2 		lsl	r2, r1, r2
 267:C:/Users/vovua/STM32Cube/Repository/STM32Cube_FW_F1_V1.8.4/Drivers/STM32F1xx_HAL_Driver/Src\stm32f1xx_hal_dma.c **** 
 304              		.loc 1 267 30 view .LVU104
 305 0040 6260     		str	r2, [r4, #4]
 270:C:/Users/vovua/STM32Cube/Repository/STM32Cube_FW_F1_V1.8.4/Drivers/STM32F1xx_HAL_Driver/Src\stm32f1xx_hal_dma.c ****   hdma->XferHalfCpltCallback = NULL;
 306              		.loc 1 270 3 is_stmt 1 view .LVU105
 270:C:/Users/vovua/STM32Cube/Repository/STM32Cube_FW_F1_V1.8.4/Drivers/STM32F1xx_HAL_Driver/Src\stm32f1xx_hal_dma.c ****   hdma->XferHalfCpltCallback = NULL;
 307              		.loc 1 270 26 is_stmt 0 view .LVU106
 308 0042 9862     		str	r0, [r3, #40]
 271:C:/Users/vovua/STM32Cube/Repository/STM32Cube_FW_F1_V1.8.4/Drivers/STM32F1xx_HAL_Driver/Src\stm32f1xx_hal_dma.c ****   hdma->XferErrorCallback = NULL;
 309              		.loc 1 271 3 is_stmt 1 view .LVU107
 271:C:/Users/vovua/STM32Cube/Repository/STM32Cube_FW_F1_V1.8.4/Drivers/STM32F1xx_HAL_Driver/Src\stm32f1xx_hal_dma.c ****   hdma->XferErrorCallback = NULL;
 310              		.loc 1 271 30 is_stmt 0 view .LVU108
 311 0044 D862     		str	r0, [r3, #44]
 272:C:/Users/vovua/STM32Cube/Repository/STM32Cube_FW_F1_V1.8.4/Drivers/STM32F1xx_HAL_Driver/Src\stm32f1xx_hal_dma.c ****   hdma->XferAbortCallback = NULL;
 312              		.loc 1 272 3 is_stmt 1 view .LVU109
 272:C:/Users/vovua/STM32Cube/Repository/STM32Cube_FW_F1_V1.8.4/Drivers/STM32F1xx_HAL_Driver/Src\stm32f1xx_hal_dma.c ****   hdma->XferAbortCallback = NULL;
 313              		.loc 1 272 27 is_stmt 0 view .LVU110
 314 0046 1863     		str	r0, [r3, #48]
 273:C:/Users/vovua/STM32Cube/Repository/STM32Cube_FW_F1_V1.8.4/Drivers/STM32F1xx_HAL_Driver/Src\stm32f1xx_hal_dma.c **** 
 315              		.loc 1 273 3 is_stmt 1 view .LVU111
 273:C:/Users/vovua/STM32Cube/Repository/STM32Cube_FW_F1_V1.8.4/Drivers/STM32F1xx_HAL_Driver/Src\stm32f1xx_hal_dma.c **** 
 316              		.loc 1 273 27 is_stmt 0 view .LVU112
 317 0048 5863     		str	r0, [r3, #52]
 276:C:/Users/vovua/STM32Cube/Repository/STM32Cube_FW_F1_V1.8.4/Drivers/STM32F1xx_HAL_Driver/Src\stm32f1xx_hal_dma.c **** 
 318              		.loc 1 276 3 is_stmt 1 view .LVU113
 276:C:/Users/vovua/STM32Cube/Repository/STM32Cube_FW_F1_V1.8.4/Drivers/STM32F1xx_HAL_Driver/Src\stm32f1xx_hal_dma.c **** 
 319              		.loc 1 276 19 is_stmt 0 view .LVU114
 320 004a 9863     		str	r0, [r3, #56]
 279:C:/Users/vovua/STM32Cube/Repository/STM32Cube_FW_F1_V1.8.4/Drivers/STM32F1xx_HAL_Driver/Src\stm32f1xx_hal_dma.c **** 
 321              		.loc 1 279 3 is_stmt 1 view .LVU115
 279:C:/Users/vovua/STM32Cube/Repository/STM32Cube_FW_F1_V1.8.4/Drivers/STM32F1xx_HAL_Driver/Src\stm32f1xx_hal_dma.c **** 
 322              		.loc 1 279 15 is_stmt 0 view .LVU116
 323 004c 83F82100 		strb	r0, [r3, #33]
 282:C:/Users/vovua/STM32Cube/Repository/STM32Cube_FW_F1_V1.8.4/Drivers/STM32F1xx_HAL_Driver/Src\stm32f1xx_hal_dma.c **** 
 324              		.loc 1 282 3 is_stmt 1 view .LVU117
 282:C:/Users/vovua/STM32Cube/Repository/STM32Cube_FW_F1_V1.8.4/Drivers/STM32F1xx_HAL_Driver/Src\stm32f1xx_hal_dma.c **** 
 325              		.loc 1 282 3 view .LVU118
 326 0050 83F82000 		strb	r0, [r3, #32]
 282:C:/Users/vovua/STM32Cube/Repository/STM32Cube_FW_F1_V1.8.4/Drivers/STM32F1xx_HAL_Driver/Src\stm32f1xx_hal_dma.c **** 
 327              		.loc 1 282 3 view .LVU119
 284:C:/Users/vovua/STM32Cube/Repository/STM32Cube_FW_F1_V1.8.4/Drivers/STM32F1xx_HAL_Driver/Src\stm32f1xx_hal_dma.c **** }
 328              		.loc 1 284 3 view .LVU120
 285:C:/Users/vovua/STM32Cube/Repository/STM32Cube_FW_F1_V1.8.4/Drivers/STM32F1xx_HAL_Driver/Src\stm32f1xx_hal_dma.c **** 
ARM GAS  C:\Users\vovua\AppData\Local\Temp\cc7FFceq.s 			page 24


 329              		.loc 1 285 1 is_stmt 0 view .LVU121
 330 0054 10BC     		pop	{r4}
 331              	.LCFI6:
 332              		.cfi_restore 4
 333              		.cfi_def_cfa_offset 0
 334 0056 7047     		bx	lr
 335              	.LVL16:
 336              	.L17:
 225:C:/Users/vovua/STM32Cube/Repository/STM32Cube_FW_F1_V1.8.4/Drivers/STM32F1xx_HAL_Driver/Src\stm32f1xx_hal_dma.c ****   }
 337              		.loc 1 225 12 view .LVU122
 338 0058 0120     		movs	r0, #1
 339              	.LVL17:
 285:C:/Users/vovua/STM32Cube/Repository/STM32Cube_FW_F1_V1.8.4/Drivers/STM32F1xx_HAL_Driver/Src\stm32f1xx_hal_dma.c **** 
 340              		.loc 1 285 1 view .LVU123
 341 005a 7047     		bx	lr
 342              	.L23:
 343              		.align	2
 344              	.L22:
 345 005c F8FFFDBF 		.word	-1073872904
 346 0060 CDCCCCCC 		.word	-858993459
 347 0064 00000240 		.word	1073872896
 348              		.cfi_endproc
 349              	.LFE66:
 351              		.section	.text.HAL_DMA_Start,"ax",%progbits
 352              		.align	1
 353              		.global	HAL_DMA_Start
 354              		.syntax unified
 355              		.thumb
 356              		.thumb_func
 358              	HAL_DMA_Start:
 359              	.LVL18:
 360              	.LFB67:
 320:C:/Users/vovua/STM32Cube/Repository/STM32Cube_FW_F1_V1.8.4/Drivers/STM32F1xx_HAL_Driver/Src\stm32f1xx_hal_dma.c ****   HAL_StatusTypeDef status = HAL_OK;
 361              		.loc 1 320 1 is_stmt 1 view -0
 362              		.cfi_startproc
 363              		@ args = 0, pretend = 0, frame = 0
 364              		@ frame_needed = 0, uses_anonymous_args = 0
 320:C:/Users/vovua/STM32Cube/Repository/STM32Cube_FW_F1_V1.8.4/Drivers/STM32F1xx_HAL_Driver/Src\stm32f1xx_hal_dma.c ****   HAL_StatusTypeDef status = HAL_OK;
 365              		.loc 1 320 1 is_stmt 0 view .LVU125
 366 0000 70B5     		push	{r4, r5, r6, lr}
 367              	.LCFI7:
 368              		.cfi_def_cfa_offset 16
 369              		.cfi_offset 4, -16
 370              		.cfi_offset 5, -12
 371              		.cfi_offset 6, -8
 372              		.cfi_offset 14, -4
 373 0002 0446     		mov	r4, r0
 321:C:/Users/vovua/STM32Cube/Repository/STM32Cube_FW_F1_V1.8.4/Drivers/STM32F1xx_HAL_Driver/Src\stm32f1xx_hal_dma.c **** 
 374              		.loc 1 321 3 is_stmt 1 view .LVU126
 375              	.LVL19:
 324:C:/Users/vovua/STM32Cube/Repository/STM32Cube_FW_F1_V1.8.4/Drivers/STM32F1xx_HAL_Driver/Src\stm32f1xx_hal_dma.c **** 
 376              		.loc 1 324 3 view .LVU127
 327:C:/Users/vovua/STM32Cube/Repository/STM32Cube_FW_F1_V1.8.4/Drivers/STM32F1xx_HAL_Driver/Src\stm32f1xx_hal_dma.c **** 
 377              		.loc 1 327 3 view .LVU128
 327:C:/Users/vovua/STM32Cube/Repository/STM32Cube_FW_F1_V1.8.4/Drivers/STM32F1xx_HAL_Driver/Src\stm32f1xx_hal_dma.c **** 
 378              		.loc 1 327 3 view .LVU129
 379 0004 90F82000 		ldrb	r0, [r0, #32]	@ zero_extendqisi2
ARM GAS  C:\Users\vovua\AppData\Local\Temp\cc7FFceq.s 			page 25


 380              	.LVL20:
 327:C:/Users/vovua/STM32Cube/Repository/STM32Cube_FW_F1_V1.8.4/Drivers/STM32F1xx_HAL_Driver/Src\stm32f1xx_hal_dma.c **** 
 381              		.loc 1 327 3 is_stmt 0 view .LVU130
 382 0008 0128     		cmp	r0, #1
 383 000a 1FD0     		beq	.L27
 327:C:/Users/vovua/STM32Cube/Repository/STM32Cube_FW_F1_V1.8.4/Drivers/STM32F1xx_HAL_Driver/Src\stm32f1xx_hal_dma.c **** 
 384              		.loc 1 327 3 is_stmt 1 discriminator 2 view .LVU131
 385 000c 0120     		movs	r0, #1
 386 000e 84F82000 		strb	r0, [r4, #32]
 327:C:/Users/vovua/STM32Cube/Repository/STM32Cube_FW_F1_V1.8.4/Drivers/STM32F1xx_HAL_Driver/Src\stm32f1xx_hal_dma.c **** 
 387              		.loc 1 327 3 discriminator 2 view .LVU132
 329:C:/Users/vovua/STM32Cube/Repository/STM32Cube_FW_F1_V1.8.4/Drivers/STM32F1xx_HAL_Driver/Src\stm32f1xx_hal_dma.c ****   {
 388              		.loc 1 329 3 discriminator 2 view .LVU133
 329:C:/Users/vovua/STM32Cube/Repository/STM32Cube_FW_F1_V1.8.4/Drivers/STM32F1xx_HAL_Driver/Src\stm32f1xx_hal_dma.c ****   {
 389              		.loc 1 329 33 is_stmt 0 discriminator 2 view .LVU134
 390 0012 94F82100 		ldrb	r0, [r4, #33]	@ zero_extendqisi2
 329:C:/Users/vovua/STM32Cube/Repository/STM32Cube_FW_F1_V1.8.4/Drivers/STM32F1xx_HAL_Driver/Src\stm32f1xx_hal_dma.c ****   {
 391              		.loc 1 329 5 discriminator 2 view .LVU135
 392 0016 0128     		cmp	r0, #1
 393 0018 04D0     		beq	.L29
 347:C:/Users/vovua/STM32Cube/Repository/STM32Cube_FW_F1_V1.8.4/Drivers/STM32F1xx_HAL_Driver/Src\stm32f1xx_hal_dma.c ****    status = HAL_BUSY;
 394              		.loc 1 347 4 is_stmt 1 view .LVU136
 347:C:/Users/vovua/STM32Cube/Repository/STM32Cube_FW_F1_V1.8.4/Drivers/STM32F1xx_HAL_Driver/Src\stm32f1xx_hal_dma.c ****    status = HAL_BUSY;
 395              		.loc 1 347 4 view .LVU137
 396 001a 0023     		movs	r3, #0
 397              	.LVL21:
 347:C:/Users/vovua/STM32Cube/Repository/STM32Cube_FW_F1_V1.8.4/Drivers/STM32F1xx_HAL_Driver/Src\stm32f1xx_hal_dma.c ****    status = HAL_BUSY;
 398              		.loc 1 347 4 is_stmt 0 view .LVU138
 399 001c 84F82030 		strb	r3, [r4, #32]
 347:C:/Users/vovua/STM32Cube/Repository/STM32Cube_FW_F1_V1.8.4/Drivers/STM32F1xx_HAL_Driver/Src\stm32f1xx_hal_dma.c ****    status = HAL_BUSY;
 400              		.loc 1 347 4 is_stmt 1 view .LVU139
 348:C:/Users/vovua/STM32Cube/Repository/STM32Cube_FW_F1_V1.8.4/Drivers/STM32F1xx_HAL_Driver/Src\stm32f1xx_hal_dma.c ****   }  
 401              		.loc 1 348 4 view .LVU140
 402              	.LVL22:
 348:C:/Users/vovua/STM32Cube/Repository/STM32Cube_FW_F1_V1.8.4/Drivers/STM32F1xx_HAL_Driver/Src\stm32f1xx_hal_dma.c ****   }  
 403              		.loc 1 348 11 is_stmt 0 view .LVU141
 404 0020 0220     		movs	r0, #2
 405              	.LVL23:
 406              	.L25:
 351:C:/Users/vovua/STM32Cube/Repository/STM32Cube_FW_F1_V1.8.4/Drivers/STM32F1xx_HAL_Driver/Src\stm32f1xx_hal_dma.c **** 
 407              		.loc 1 351 1 view .LVU142
 408 0022 70BD     		pop	{r4, r5, r6, pc}
 409              	.LVL24:
 410              	.L29:
 332:C:/Users/vovua/STM32Cube/Repository/STM32Cube_FW_F1_V1.8.4/Drivers/STM32F1xx_HAL_Driver/Src\stm32f1xx_hal_dma.c ****     hdma->ErrorCode = HAL_DMA_ERROR_NONE;
 411              		.loc 1 332 5 is_stmt 1 view .LVU143
 332:C:/Users/vovua/STM32Cube/Repository/STM32Cube_FW_F1_V1.8.4/Drivers/STM32F1xx_HAL_Driver/Src\stm32f1xx_hal_dma.c ****     hdma->ErrorCode = HAL_DMA_ERROR_NONE;
 412              		.loc 1 332 17 is_stmt 0 view .LVU144
 413 0024 0220     		movs	r0, #2
 414 0026 84F82100 		strb	r0, [r4, #33]
 333:C:/Users/vovua/STM32Cube/Repository/STM32Cube_FW_F1_V1.8.4/Drivers/STM32F1xx_HAL_Driver/Src\stm32f1xx_hal_dma.c ****             
 415              		.loc 1 333 5 is_stmt 1 view .LVU145
 333:C:/Users/vovua/STM32Cube/Repository/STM32Cube_FW_F1_V1.8.4/Drivers/STM32F1xx_HAL_Driver/Src\stm32f1xx_hal_dma.c ****             
 416              		.loc 1 333 21 is_stmt 0 view .LVU146
 417 002a 0025     		movs	r5, #0
 418 002c A563     		str	r5, [r4, #56]
 336:C:/Users/vovua/STM32Cube/Repository/STM32Cube_FW_F1_V1.8.4/Drivers/STM32F1xx_HAL_Driver/Src\stm32f1xx_hal_dma.c ****     
ARM GAS  C:\Users\vovua\AppData\Local\Temp\cc7FFceq.s 			page 26


 419              		.loc 1 336 5 is_stmt 1 view .LVU147
 420 002e 2668     		ldr	r6, [r4]
 421 0030 3068     		ldr	r0, [r6]
 422 0032 20F00100 		bic	r0, r0, #1
 423 0036 3060     		str	r0, [r6]
 339:C:/Users/vovua/STM32Cube/Repository/STM32Cube_FW_F1_V1.8.4/Drivers/STM32F1xx_HAL_Driver/Src\stm32f1xx_hal_dma.c ****     
 424              		.loc 1 339 5 view .LVU148
 425 0038 2046     		mov	r0, r4
 426 003a FFF7FEFF 		bl	DMA_SetConfig
 427              	.LVL25:
 342:C:/Users/vovua/STM32Cube/Repository/STM32Cube_FW_F1_V1.8.4/Drivers/STM32F1xx_HAL_Driver/Src\stm32f1xx_hal_dma.c ****   }
 428              		.loc 1 342 5 view .LVU149
 429 003e 2268     		ldr	r2, [r4]
 430 0040 1368     		ldr	r3, [r2]
 431 0042 43F00103 		orr	r3, r3, #1
 432 0046 1360     		str	r3, [r2]
 321:C:/Users/vovua/STM32Cube/Repository/STM32Cube_FW_F1_V1.8.4/Drivers/STM32F1xx_HAL_Driver/Src\stm32f1xx_hal_dma.c **** 
 433              		.loc 1 321 21 is_stmt 0 view .LVU150
 434 0048 2846     		mov	r0, r5
 435 004a EAE7     		b	.L25
 436              	.LVL26:
 437              	.L27:
 327:C:/Users/vovua/STM32Cube/Repository/STM32Cube_FW_F1_V1.8.4/Drivers/STM32F1xx_HAL_Driver/Src\stm32f1xx_hal_dma.c **** 
 438              		.loc 1 327 3 view .LVU151
 439 004c 0220     		movs	r0, #2
 440 004e E8E7     		b	.L25
 441              		.cfi_endproc
 442              	.LFE67:
 444              		.section	.text.HAL_DMA_Start_IT,"ax",%progbits
 445              		.align	1
 446              		.global	HAL_DMA_Start_IT
 447              		.syntax unified
 448              		.thumb
 449              		.thumb_func
 451              	HAL_DMA_Start_IT:
 452              	.LVL27:
 453              	.LFB68:
 363:C:/Users/vovua/STM32Cube/Repository/STM32Cube_FW_F1_V1.8.4/Drivers/STM32F1xx_HAL_Driver/Src\stm32f1xx_hal_dma.c ****   HAL_StatusTypeDef status = HAL_OK;
 454              		.loc 1 363 1 is_stmt 1 view -0
 455              		.cfi_startproc
 456              		@ args = 0, pretend = 0, frame = 0
 457              		@ frame_needed = 0, uses_anonymous_args = 0
 363:C:/Users/vovua/STM32Cube/Repository/STM32Cube_FW_F1_V1.8.4/Drivers/STM32F1xx_HAL_Driver/Src\stm32f1xx_hal_dma.c ****   HAL_StatusTypeDef status = HAL_OK;
 458              		.loc 1 363 1 is_stmt 0 view .LVU153
 459 0000 38B5     		push	{r3, r4, r5, lr}
 460              	.LCFI8:
 461              		.cfi_def_cfa_offset 16
 462              		.cfi_offset 3, -16
 463              		.cfi_offset 4, -12
 464              		.cfi_offset 5, -8
 465              		.cfi_offset 14, -4
 466 0002 0446     		mov	r4, r0
 364:C:/Users/vovua/STM32Cube/Repository/STM32Cube_FW_F1_V1.8.4/Drivers/STM32F1xx_HAL_Driver/Src\stm32f1xx_hal_dma.c **** 
 467              		.loc 1 364 3 is_stmt 1 view .LVU154
 468              	.LVL28:
 367:C:/Users/vovua/STM32Cube/Repository/STM32Cube_FW_F1_V1.8.4/Drivers/STM32F1xx_HAL_Driver/Src\stm32f1xx_hal_dma.c **** 
 469              		.loc 1 367 3 view .LVU155
ARM GAS  C:\Users\vovua\AppData\Local\Temp\cc7FFceq.s 			page 27


 370:C:/Users/vovua/STM32Cube/Repository/STM32Cube_FW_F1_V1.8.4/Drivers/STM32F1xx_HAL_Driver/Src\stm32f1xx_hal_dma.c ****   
 470              		.loc 1 370 3 view .LVU156
 370:C:/Users/vovua/STM32Cube/Repository/STM32Cube_FW_F1_V1.8.4/Drivers/STM32F1xx_HAL_Driver/Src\stm32f1xx_hal_dma.c ****   
 471              		.loc 1 370 3 view .LVU157
 472 0004 90F82000 		ldrb	r0, [r0, #32]	@ zero_extendqisi2
 473              	.LVL29:
 370:C:/Users/vovua/STM32Cube/Repository/STM32Cube_FW_F1_V1.8.4/Drivers/STM32F1xx_HAL_Driver/Src\stm32f1xx_hal_dma.c ****   
 474              		.loc 1 370 3 is_stmt 0 view .LVU158
 475 0008 0128     		cmp	r0, #1
 476 000a 31D0     		beq	.L35
 370:C:/Users/vovua/STM32Cube/Repository/STM32Cube_FW_F1_V1.8.4/Drivers/STM32F1xx_HAL_Driver/Src\stm32f1xx_hal_dma.c ****   
 477              		.loc 1 370 3 is_stmt 1 discriminator 2 view .LVU159
 478 000c 0120     		movs	r0, #1
 479 000e 84F82000 		strb	r0, [r4, #32]
 370:C:/Users/vovua/STM32Cube/Repository/STM32Cube_FW_F1_V1.8.4/Drivers/STM32F1xx_HAL_Driver/Src\stm32f1xx_hal_dma.c ****   
 480              		.loc 1 370 3 discriminator 2 view .LVU160
 372:C:/Users/vovua/STM32Cube/Repository/STM32Cube_FW_F1_V1.8.4/Drivers/STM32F1xx_HAL_Driver/Src\stm32f1xx_hal_dma.c ****   {
 481              		.loc 1 372 3 discriminator 2 view .LVU161
 372:C:/Users/vovua/STM32Cube/Repository/STM32Cube_FW_F1_V1.8.4/Drivers/STM32F1xx_HAL_Driver/Src\stm32f1xx_hal_dma.c ****   {
 482              		.loc 1 372 33 is_stmt 0 discriminator 2 view .LVU162
 483 0012 94F82100 		ldrb	r0, [r4, #33]	@ zero_extendqisi2
 372:C:/Users/vovua/STM32Cube/Repository/STM32Cube_FW_F1_V1.8.4/Drivers/STM32F1xx_HAL_Driver/Src\stm32f1xx_hal_dma.c ****   {
 484              		.loc 1 372 5 discriminator 2 view .LVU163
 485 0016 0128     		cmp	r0, #1
 486 0018 04D0     		beq	.L37
 402:C:/Users/vovua/STM32Cube/Repository/STM32Cube_FW_F1_V1.8.4/Drivers/STM32F1xx_HAL_Driver/Src\stm32f1xx_hal_dma.c **** 
 487              		.loc 1 402 5 is_stmt 1 view .LVU164
 402:C:/Users/vovua/STM32Cube/Repository/STM32Cube_FW_F1_V1.8.4/Drivers/STM32F1xx_HAL_Driver/Src\stm32f1xx_hal_dma.c **** 
 488              		.loc 1 402 5 view .LVU165
 489 001a 0023     		movs	r3, #0
 490              	.LVL30:
 402:C:/Users/vovua/STM32Cube/Repository/STM32Cube_FW_F1_V1.8.4/Drivers/STM32F1xx_HAL_Driver/Src\stm32f1xx_hal_dma.c **** 
 491              		.loc 1 402 5 is_stmt 0 view .LVU166
 492 001c 84F82030 		strb	r3, [r4, #32]
 402:C:/Users/vovua/STM32Cube/Repository/STM32Cube_FW_F1_V1.8.4/Drivers/STM32F1xx_HAL_Driver/Src\stm32f1xx_hal_dma.c **** 
 493              		.loc 1 402 5 is_stmt 1 view .LVU167
 405:C:/Users/vovua/STM32Cube/Repository/STM32Cube_FW_F1_V1.8.4/Drivers/STM32F1xx_HAL_Driver/Src\stm32f1xx_hal_dma.c ****   }    
 494              		.loc 1 405 5 view .LVU168
 495              	.LVL31:
 405:C:/Users/vovua/STM32Cube/Repository/STM32Cube_FW_F1_V1.8.4/Drivers/STM32F1xx_HAL_Driver/Src\stm32f1xx_hal_dma.c ****   }    
 496              		.loc 1 405 12 is_stmt 0 view .LVU169
 497 0020 0220     		movs	r0, #2
 498              	.LVL32:
 499              	.L31:
 408:C:/Users/vovua/STM32Cube/Repository/STM32Cube_FW_F1_V1.8.4/Drivers/STM32F1xx_HAL_Driver/Src\stm32f1xx_hal_dma.c **** 
 500              		.loc 1 408 1 view .LVU170
 501 0022 38BD     		pop	{r3, r4, r5, pc}
 502              	.LVL33:
 503              	.L37:
 375:C:/Users/vovua/STM32Cube/Repository/STM32Cube_FW_F1_V1.8.4/Drivers/STM32F1xx_HAL_Driver/Src\stm32f1xx_hal_dma.c ****     hdma->ErrorCode = HAL_DMA_ERROR_NONE;
 504              		.loc 1 375 5 is_stmt 1 view .LVU171
 375:C:/Users/vovua/STM32Cube/Repository/STM32Cube_FW_F1_V1.8.4/Drivers/STM32F1xx_HAL_Driver/Src\stm32f1xx_hal_dma.c ****     hdma->ErrorCode = HAL_DMA_ERROR_NONE;
 505              		.loc 1 375 17 is_stmt 0 view .LVU172
 506 0024 0220     		movs	r0, #2
 507 0026 84F82100 		strb	r0, [r4, #33]
 376:C:/Users/vovua/STM32Cube/Repository/STM32Cube_FW_F1_V1.8.4/Drivers/STM32F1xx_HAL_Driver/Src\stm32f1xx_hal_dma.c ****     
 508              		.loc 1 376 5 is_stmt 1 view .LVU173
ARM GAS  C:\Users\vovua\AppData\Local\Temp\cc7FFceq.s 			page 28


 376:C:/Users/vovua/STM32Cube/Repository/STM32Cube_FW_F1_V1.8.4/Drivers/STM32F1xx_HAL_Driver/Src\stm32f1xx_hal_dma.c ****     
 509              		.loc 1 376 21 is_stmt 0 view .LVU174
 510 002a 0020     		movs	r0, #0
 511 002c A063     		str	r0, [r4, #56]
 379:C:/Users/vovua/STM32Cube/Repository/STM32Cube_FW_F1_V1.8.4/Drivers/STM32F1xx_HAL_Driver/Src\stm32f1xx_hal_dma.c ****     
 512              		.loc 1 379 5 is_stmt 1 view .LVU175
 513 002e 2568     		ldr	r5, [r4]
 514 0030 2868     		ldr	r0, [r5]
 515 0032 20F00100 		bic	r0, r0, #1
 516 0036 2860     		str	r0, [r5]
 382:C:/Users/vovua/STM32Cube/Repository/STM32Cube_FW_F1_V1.8.4/Drivers/STM32F1xx_HAL_Driver/Src\stm32f1xx_hal_dma.c ****     
 517              		.loc 1 382 5 view .LVU176
 518 0038 2046     		mov	r0, r4
 519 003a FFF7FEFF 		bl	DMA_SetConfig
 520              	.LVL34:
 386:C:/Users/vovua/STM32Cube/Repository/STM32Cube_FW_F1_V1.8.4/Drivers/STM32F1xx_HAL_Driver/Src\stm32f1xx_hal_dma.c ****     {
 521              		.loc 1 386 5 view .LVU177
 386:C:/Users/vovua/STM32Cube/Repository/STM32Cube_FW_F1_V1.8.4/Drivers/STM32F1xx_HAL_Driver/Src\stm32f1xx_hal_dma.c ****     {
 522              		.loc 1 386 20 is_stmt 0 view .LVU178
 523 003e E36A     		ldr	r3, [r4, #44]
 386:C:/Users/vovua/STM32Cube/Repository/STM32Cube_FW_F1_V1.8.4/Drivers/STM32F1xx_HAL_Driver/Src\stm32f1xx_hal_dma.c ****     {
 524              		.loc 1 386 7 view .LVU179
 525 0040 5BB1     		cbz	r3, .L33
 389:C:/Users/vovua/STM32Cube/Repository/STM32Cube_FW_F1_V1.8.4/Drivers/STM32F1xx_HAL_Driver/Src\stm32f1xx_hal_dma.c ****     }
 526              		.loc 1 389 7 is_stmt 1 view .LVU180
 527 0042 2268     		ldr	r2, [r4]
 528 0044 1368     		ldr	r3, [r2]
 529 0046 43F00E03 		orr	r3, r3, #14
 530 004a 1360     		str	r3, [r2]
 531              	.L34:
 397:C:/Users/vovua/STM32Cube/Repository/STM32Cube_FW_F1_V1.8.4/Drivers/STM32F1xx_HAL_Driver/Src\stm32f1xx_hal_dma.c ****   }
 532              		.loc 1 397 5 view .LVU181
 533 004c 2268     		ldr	r2, [r4]
 534 004e 1368     		ldr	r3, [r2]
 535 0050 43F00103 		orr	r3, r3, #1
 536 0054 1360     		str	r3, [r2]
 364:C:/Users/vovua/STM32Cube/Repository/STM32Cube_FW_F1_V1.8.4/Drivers/STM32F1xx_HAL_Driver/Src\stm32f1xx_hal_dma.c **** 
 537              		.loc 1 364 21 is_stmt 0 view .LVU182
 538 0056 0020     		movs	r0, #0
 539 0058 E3E7     		b	.L31
 540              	.L33:
 393:C:/Users/vovua/STM32Cube/Repository/STM32Cube_FW_F1_V1.8.4/Drivers/STM32F1xx_HAL_Driver/Src\stm32f1xx_hal_dma.c ****       __HAL_DMA_ENABLE_IT(hdma, (DMA_IT_TC | DMA_IT_TE));
 541              		.loc 1 393 7 is_stmt 1 view .LVU183
 542 005a 2268     		ldr	r2, [r4]
 543 005c 1368     		ldr	r3, [r2]
 544 005e 23F00403 		bic	r3, r3, #4
 545 0062 1360     		str	r3, [r2]
 394:C:/Users/vovua/STM32Cube/Repository/STM32Cube_FW_F1_V1.8.4/Drivers/STM32F1xx_HAL_Driver/Src\stm32f1xx_hal_dma.c ****     }
 546              		.loc 1 394 7 view .LVU184
 547 0064 2268     		ldr	r2, [r4]
 548 0066 1368     		ldr	r3, [r2]
 549 0068 43F00A03 		orr	r3, r3, #10
 550 006c 1360     		str	r3, [r2]
 551 006e EDE7     		b	.L34
 552              	.LVL35:
 553              	.L35:
 370:C:/Users/vovua/STM32Cube/Repository/STM32Cube_FW_F1_V1.8.4/Drivers/STM32F1xx_HAL_Driver/Src\stm32f1xx_hal_dma.c ****   
ARM GAS  C:\Users\vovua\AppData\Local\Temp\cc7FFceq.s 			page 29


 554              		.loc 1 370 3 is_stmt 0 view .LVU185
 555 0070 0220     		movs	r0, #2
 556 0072 D6E7     		b	.L31
 557              		.cfi_endproc
 558              	.LFE68:
 560              		.section	.text.HAL_DMA_Abort,"ax",%progbits
 561              		.align	1
 562              		.global	HAL_DMA_Abort
 563              		.syntax unified
 564              		.thumb
 565              		.thumb_func
 567              	HAL_DMA_Abort:
 568              	.LVL36:
 569              	.LFB69:
 417:C:/Users/vovua/STM32Cube/Repository/STM32Cube_FW_F1_V1.8.4/Drivers/STM32F1xx_HAL_Driver/Src\stm32f1xx_hal_dma.c ****   HAL_StatusTypeDef status = HAL_OK;
 570              		.loc 1 417 1 is_stmt 1 view -0
 571              		.cfi_startproc
 572              		@ args = 0, pretend = 0, frame = 0
 573              		@ frame_needed = 0, uses_anonymous_args = 0
 574              		@ link register save eliminated.
 417:C:/Users/vovua/STM32Cube/Repository/STM32Cube_FW_F1_V1.8.4/Drivers/STM32F1xx_HAL_Driver/Src\stm32f1xx_hal_dma.c ****   HAL_StatusTypeDef status = HAL_OK;
 575              		.loc 1 417 1 is_stmt 0 view .LVU187
 576 0000 0346     		mov	r3, r0
 418:C:/Users/vovua/STM32Cube/Repository/STM32Cube_FW_F1_V1.8.4/Drivers/STM32F1xx_HAL_Driver/Src\stm32f1xx_hal_dma.c ****   
 577              		.loc 1 418 3 is_stmt 1 view .LVU188
 578              	.LVL37:
 420:C:/Users/vovua/STM32Cube/Repository/STM32Cube_FW_F1_V1.8.4/Drivers/STM32F1xx_HAL_Driver/Src\stm32f1xx_hal_dma.c ****   {
 579              		.loc 1 420 3 view .LVU189
 420:C:/Users/vovua/STM32Cube/Repository/STM32Cube_FW_F1_V1.8.4/Drivers/STM32F1xx_HAL_Driver/Src\stm32f1xx_hal_dma.c ****   {
 580              		.loc 1 420 10 is_stmt 0 view .LVU190
 581 0002 90F82120 		ldrb	r2, [r0, #33]	@ zero_extendqisi2
 420:C:/Users/vovua/STM32Cube/Repository/STM32Cube_FW_F1_V1.8.4/Drivers/STM32F1xx_HAL_Driver/Src\stm32f1xx_hal_dma.c ****   {
 582              		.loc 1 420 5 view .LVU191
 583 0006 022A     		cmp	r2, #2
 584 0008 06D0     		beq	.L39
 423:C:/Users/vovua/STM32Cube/Repository/STM32Cube_FW_F1_V1.8.4/Drivers/STM32F1xx_HAL_Driver/Src\stm32f1xx_hal_dma.c ****     
 585              		.loc 1 423 5 is_stmt 1 view .LVU192
 423:C:/Users/vovua/STM32Cube/Repository/STM32Cube_FW_F1_V1.8.4/Drivers/STM32F1xx_HAL_Driver/Src\stm32f1xx_hal_dma.c ****     
 586              		.loc 1 423 21 is_stmt 0 view .LVU193
 587 000a 0422     		movs	r2, #4
 588 000c 8263     		str	r2, [r0, #56]
 426:C:/Users/vovua/STM32Cube/Repository/STM32Cube_FW_F1_V1.8.4/Drivers/STM32F1xx_HAL_Driver/Src\stm32f1xx_hal_dma.c ****     
 589              		.loc 1 426 5 is_stmt 1 view .LVU194
 426:C:/Users/vovua/STM32Cube/Repository/STM32Cube_FW_F1_V1.8.4/Drivers/STM32F1xx_HAL_Driver/Src\stm32f1xx_hal_dma.c ****     
 590              		.loc 1 426 5 view .LVU195
 591 000e 0022     		movs	r2, #0
 592 0010 80F82020 		strb	r2, [r0, #32]
 426:C:/Users/vovua/STM32Cube/Repository/STM32Cube_FW_F1_V1.8.4/Drivers/STM32F1xx_HAL_Driver/Src\stm32f1xx_hal_dma.c ****     
 593              		.loc 1 426 5 view .LVU196
 428:C:/Users/vovua/STM32Cube/Repository/STM32Cube_FW_F1_V1.8.4/Drivers/STM32F1xx_HAL_Driver/Src\stm32f1xx_hal_dma.c ****   }
 594              		.loc 1 428 5 view .LVU197
 428:C:/Users/vovua/STM32Cube/Repository/STM32Cube_FW_F1_V1.8.4/Drivers/STM32F1xx_HAL_Driver/Src\stm32f1xx_hal_dma.c ****   }
 595              		.loc 1 428 12 is_stmt 0 view .LVU198
 596 0014 0120     		movs	r0, #1
 597              	.LVL38:
 428:C:/Users/vovua/STM32Cube/Repository/STM32Cube_FW_F1_V1.8.4/Drivers/STM32F1xx_HAL_Driver/Src\stm32f1xx_hal_dma.c ****   }
 598              		.loc 1 428 12 view .LVU199
ARM GAS  C:\Users\vovua\AppData\Local\Temp\cc7FFceq.s 			page 30


 599 0016 7047     		bx	lr
 600              	.LVL39:
 601              	.L39:
 434:C:/Users/vovua/STM32Cube/Repository/STM32Cube_FW_F1_V1.8.4/Drivers/STM32F1xx_HAL_Driver/Src\stm32f1xx_hal_dma.c ****       
 602              		.loc 1 434 5 is_stmt 1 view .LVU200
 603 0018 0168     		ldr	r1, [r0]
 604 001a 0A68     		ldr	r2, [r1]
 605 001c 22F00E02 		bic	r2, r2, #14
 606 0020 0A60     		str	r2, [r1]
 437:C:/Users/vovua/STM32Cube/Repository/STM32Cube_FW_F1_V1.8.4/Drivers/STM32F1xx_HAL_Driver/Src\stm32f1xx_hal_dma.c ****       
 607              		.loc 1 437 5 view .LVU201
 608 0022 0168     		ldr	r1, [r0]
 609 0024 0A68     		ldr	r2, [r1]
 610 0026 22F00102 		bic	r2, r2, #1
 611 002a 0A60     		str	r2, [r1]
 440:C:/Users/vovua/STM32Cube/Repository/STM32Cube_FW_F1_V1.8.4/Drivers/STM32F1xx_HAL_Driver/Src\stm32f1xx_hal_dma.c ****   }
 612              		.loc 1 440 5 view .LVU202
 440:C:/Users/vovua/STM32Cube/Repository/STM32Cube_FW_F1_V1.8.4/Drivers/STM32F1xx_HAL_Driver/Src\stm32f1xx_hal_dma.c ****   }
 613              		.loc 1 440 55 is_stmt 0 view .LVU203
 614 002c 026C     		ldr	r2, [r0, #64]
 440:C:/Users/vovua/STM32Cube/Repository/STM32Cube_FW_F1_V1.8.4/Drivers/STM32F1xx_HAL_Driver/Src\stm32f1xx_hal_dma.c ****   }
 615              		.loc 1 440 9 view .LVU204
 616 002e C06B     		ldr	r0, [r0, #60]
 617              	.LVL40:
 440:C:/Users/vovua/STM32Cube/Repository/STM32Cube_FW_F1_V1.8.4/Drivers/STM32F1xx_HAL_Driver/Src\stm32f1xx_hal_dma.c ****   }
 618              		.loc 1 440 48 view .LVU205
 619 0030 0121     		movs	r1, #1
 620 0032 01FA02F2 		lsl	r2, r1, r2
 440:C:/Users/vovua/STM32Cube/Repository/STM32Cube_FW_F1_V1.8.4/Drivers/STM32F1xx_HAL_Driver/Src\stm32f1xx_hal_dma.c ****   }
 621              		.loc 1 440 32 view .LVU206
 622 0036 4260     		str	r2, [r0, #4]
 443:C:/Users/vovua/STM32Cube/Repository/STM32Cube_FW_F1_V1.8.4/Drivers/STM32F1xx_HAL_Driver/Src\stm32f1xx_hal_dma.c **** 
 623              		.loc 1 443 3 is_stmt 1 view .LVU207
 443:C:/Users/vovua/STM32Cube/Repository/STM32Cube_FW_F1_V1.8.4/Drivers/STM32F1xx_HAL_Driver/Src\stm32f1xx_hal_dma.c **** 
 624              		.loc 1 443 15 is_stmt 0 view .LVU208
 625 0038 83F82110 		strb	r1, [r3, #33]
 446:C:/Users/vovua/STM32Cube/Repository/STM32Cube_FW_F1_V1.8.4/Drivers/STM32F1xx_HAL_Driver/Src\stm32f1xx_hal_dma.c ****   
 626              		.loc 1 446 3 is_stmt 1 view .LVU209
 446:C:/Users/vovua/STM32Cube/Repository/STM32Cube_FW_F1_V1.8.4/Drivers/STM32F1xx_HAL_Driver/Src\stm32f1xx_hal_dma.c ****   
 627              		.loc 1 446 3 view .LVU210
 628 003c 0020     		movs	r0, #0
 629 003e 83F82000 		strb	r0, [r3, #32]
 446:C:/Users/vovua/STM32Cube/Repository/STM32Cube_FW_F1_V1.8.4/Drivers/STM32F1xx_HAL_Driver/Src\stm32f1xx_hal_dma.c ****   
 630              		.loc 1 446 3 view .LVU211
 448:C:/Users/vovua/STM32Cube/Repository/STM32Cube_FW_F1_V1.8.4/Drivers/STM32F1xx_HAL_Driver/Src\stm32f1xx_hal_dma.c **** }
 631              		.loc 1 448 3 view .LVU212
 449:C:/Users/vovua/STM32Cube/Repository/STM32Cube_FW_F1_V1.8.4/Drivers/STM32F1xx_HAL_Driver/Src\stm32f1xx_hal_dma.c **** 
 632              		.loc 1 449 1 is_stmt 0 view .LVU213
 633 0042 7047     		bx	lr
 634              		.cfi_endproc
 635              	.LFE69:
 637              		.section	.text.HAL_DMA_Abort_IT,"ax",%progbits
 638              		.align	1
 639              		.global	HAL_DMA_Abort_IT
 640              		.syntax unified
 641              		.thumb
 642              		.thumb_func
ARM GAS  C:\Users\vovua\AppData\Local\Temp\cc7FFceq.s 			page 31


 644              	HAL_DMA_Abort_IT:
 645              	.LVL41:
 646              	.LFB70:
 458:C:/Users/vovua/STM32Cube/Repository/STM32Cube_FW_F1_V1.8.4/Drivers/STM32F1xx_HAL_Driver/Src\stm32f1xx_hal_dma.c ****   HAL_StatusTypeDef status = HAL_OK;
 647              		.loc 1 458 1 is_stmt 1 view -0
 648              		.cfi_startproc
 649              		@ args = 0, pretend = 0, frame = 0
 650              		@ frame_needed = 0, uses_anonymous_args = 0
 458:C:/Users/vovua/STM32Cube/Repository/STM32Cube_FW_F1_V1.8.4/Drivers/STM32F1xx_HAL_Driver/Src\stm32f1xx_hal_dma.c ****   HAL_StatusTypeDef status = HAL_OK;
 651              		.loc 1 458 1 is_stmt 0 view .LVU215
 652 0000 08B5     		push	{r3, lr}
 653              	.LCFI9:
 654              		.cfi_def_cfa_offset 8
 655              		.cfi_offset 3, -8
 656              		.cfi_offset 14, -4
 459:C:/Users/vovua/STM32Cube/Repository/STM32Cube_FW_F1_V1.8.4/Drivers/STM32F1xx_HAL_Driver/Src\stm32f1xx_hal_dma.c ****   
 657              		.loc 1 459 3 is_stmt 1 view .LVU216
 658              	.LVL42:
 461:C:/Users/vovua/STM32Cube/Repository/STM32Cube_FW_F1_V1.8.4/Drivers/STM32F1xx_HAL_Driver/Src\stm32f1xx_hal_dma.c ****   {
 659              		.loc 1 461 3 view .LVU217
 461:C:/Users/vovua/STM32Cube/Repository/STM32Cube_FW_F1_V1.8.4/Drivers/STM32F1xx_HAL_Driver/Src\stm32f1xx_hal_dma.c ****   {
 660              		.loc 1 461 32 is_stmt 0 view .LVU218
 661 0002 90F82130 		ldrb	r3, [r0, #33]	@ zero_extendqisi2
 461:C:/Users/vovua/STM32Cube/Repository/STM32Cube_FW_F1_V1.8.4/Drivers/STM32F1xx_HAL_Driver/Src\stm32f1xx_hal_dma.c ****   {
 662              		.loc 1 461 5 view .LVU219
 663 0006 022B     		cmp	r3, #2
 664 0008 03D0     		beq	.L42
 464:C:/Users/vovua/STM32Cube/Repository/STM32Cube_FW_F1_V1.8.4/Drivers/STM32F1xx_HAL_Driver/Src\stm32f1xx_hal_dma.c ****         
 665              		.loc 1 464 5 is_stmt 1 view .LVU220
 464:C:/Users/vovua/STM32Cube/Repository/STM32Cube_FW_F1_V1.8.4/Drivers/STM32F1xx_HAL_Driver/Src\stm32f1xx_hal_dma.c ****         
 666              		.loc 1 464 21 is_stmt 0 view .LVU221
 667 000a 0423     		movs	r3, #4
 668 000c 8363     		str	r3, [r0, #56]
 466:C:/Users/vovua/STM32Cube/Repository/STM32Cube_FW_F1_V1.8.4/Drivers/STM32F1xx_HAL_Driver/Src\stm32f1xx_hal_dma.c ****   }
 669              		.loc 1 466 5 is_stmt 1 view .LVU222
 670              	.LVL43:
 466:C:/Users/vovua/STM32Cube/Repository/STM32Cube_FW_F1_V1.8.4/Drivers/STM32F1xx_HAL_Driver/Src\stm32f1xx_hal_dma.c ****   }
 671              		.loc 1 466 12 is_stmt 0 view .LVU223
 672 000e 0120     		movs	r0, #1
 673              	.LVL44:
 674              	.L43:
 491:C:/Users/vovua/STM32Cube/Repository/STM32Cube_FW_F1_V1.8.4/Drivers/STM32F1xx_HAL_Driver/Src\stm32f1xx_hal_dma.c **** }
 675              		.loc 1 491 3 is_stmt 1 view .LVU224
 492:C:/Users/vovua/STM32Cube/Repository/STM32Cube_FW_F1_V1.8.4/Drivers/STM32F1xx_HAL_Driver/Src\stm32f1xx_hal_dma.c **** 
 676              		.loc 1 492 1 is_stmt 0 view .LVU225
 677 0010 08BD     		pop	{r3, pc}
 678              	.LVL45:
 679              	.L42:
 471:C:/Users/vovua/STM32Cube/Repository/STM32Cube_FW_F1_V1.8.4/Drivers/STM32F1xx_HAL_Driver/Src\stm32f1xx_hal_dma.c **** 
 680              		.loc 1 471 5 is_stmt 1 view .LVU226
 681 0012 0268     		ldr	r2, [r0]
 682 0014 1368     		ldr	r3, [r2]
 683 0016 23F00E03 		bic	r3, r3, #14
 684 001a 1360     		str	r3, [r2]
 474:C:/Users/vovua/STM32Cube/Repository/STM32Cube_FW_F1_V1.8.4/Drivers/STM32F1xx_HAL_Driver/Src\stm32f1xx_hal_dma.c **** 
 685              		.loc 1 474 5 view .LVU227
 686 001c 0268     		ldr	r2, [r0]
ARM GAS  C:\Users\vovua\AppData\Local\Temp\cc7FFceq.s 			page 32


 687 001e 1368     		ldr	r3, [r2]
 688 0020 23F00103 		bic	r3, r3, #1
 689 0024 1360     		str	r3, [r2]
 477:C:/Users/vovua/STM32Cube/Repository/STM32Cube_FW_F1_V1.8.4/Drivers/STM32F1xx_HAL_Driver/Src\stm32f1xx_hal_dma.c **** 
 690              		.loc 1 477 5 view .LVU228
 691 0026 0368     		ldr	r3, [r0]
 692 0028 194A     		ldr	r2, .L54
 693 002a 9342     		cmp	r3, r2
 694 002c 14D0     		beq	.L45
 477:C:/Users/vovua/STM32Cube/Repository/STM32Cube_FW_F1_V1.8.4/Drivers/STM32F1xx_HAL_Driver/Src\stm32f1xx_hal_dma.c **** 
 695              		.loc 1 477 5 is_stmt 0 discriminator 1 view .LVU229
 696 002e 1432     		adds	r2, r2, #20
 697 0030 9342     		cmp	r3, r2
 698 0032 1FD0     		beq	.L46
 477:C:/Users/vovua/STM32Cube/Repository/STM32Cube_FW_F1_V1.8.4/Drivers/STM32F1xx_HAL_Driver/Src\stm32f1xx_hal_dma.c **** 
 699              		.loc 1 477 5 discriminator 3 view .LVU230
 700 0034 1432     		adds	r2, r2, #20
 701 0036 9342     		cmp	r3, r2
 702 0038 1ED0     		beq	.L47
 477:C:/Users/vovua/STM32Cube/Repository/STM32Cube_FW_F1_V1.8.4/Drivers/STM32F1xx_HAL_Driver/Src\stm32f1xx_hal_dma.c **** 
 703              		.loc 1 477 5 discriminator 5 view .LVU231
 704 003a 1432     		adds	r2, r2, #20
 705 003c 9342     		cmp	r3, r2
 706 003e 1ED0     		beq	.L48
 477:C:/Users/vovua/STM32Cube/Repository/STM32Cube_FW_F1_V1.8.4/Drivers/STM32F1xx_HAL_Driver/Src\stm32f1xx_hal_dma.c **** 
 707              		.loc 1 477 5 discriminator 7 view .LVU232
 708 0040 1432     		adds	r2, r2, #20
 709 0042 9342     		cmp	r3, r2
 710 0044 1ED0     		beq	.L49
 477:C:/Users/vovua/STM32Cube/Repository/STM32Cube_FW_F1_V1.8.4/Drivers/STM32F1xx_HAL_Driver/Src\stm32f1xx_hal_dma.c **** 
 711              		.loc 1 477 5 discriminator 9 view .LVU233
 712 0046 1432     		adds	r2, r2, #20
 713 0048 9342     		cmp	r3, r2
 714 004a 02D0     		beq	.L53
 477:C:/Users/vovua/STM32Cube/Repository/STM32Cube_FW_F1_V1.8.4/Drivers/STM32F1xx_HAL_Driver/Src\stm32f1xx_hal_dma.c **** 
 715              		.loc 1 477 5 view .LVU234
 716 004c 4FF08072 		mov	r2, #16777216
 717 0050 03E0     		b	.L44
 718              	.L53:
 719 0052 4FF48012 		mov	r2, #1048576
 720 0056 00E0     		b	.L44
 721              	.L45:
 722 0058 0122     		movs	r2, #1
 723              	.L44:
 477:C:/Users/vovua/STM32Cube/Repository/STM32Cube_FW_F1_V1.8.4/Drivers/STM32F1xx_HAL_Driver/Src\stm32f1xx_hal_dma.c **** 
 724              		.loc 1 477 5 discriminator 24 view .LVU235
 725 005a 0E4B     		ldr	r3, .L54+4
 726 005c 5A60     		str	r2, [r3, #4]
 480:C:/Users/vovua/STM32Cube/Repository/STM32Cube_FW_F1_V1.8.4/Drivers/STM32F1xx_HAL_Driver/Src\stm32f1xx_hal_dma.c **** 
 727              		.loc 1 480 5 is_stmt 1 discriminator 24 view .LVU236
 480:C:/Users/vovua/STM32Cube/Repository/STM32Cube_FW_F1_V1.8.4/Drivers/STM32F1xx_HAL_Driver/Src\stm32f1xx_hal_dma.c **** 
 728              		.loc 1 480 17 is_stmt 0 discriminator 24 view .LVU237
 729 005e 0123     		movs	r3, #1
 730 0060 80F82130 		strb	r3, [r0, #33]
 483:C:/Users/vovua/STM32Cube/Repository/STM32Cube_FW_F1_V1.8.4/Drivers/STM32F1xx_HAL_Driver/Src\stm32f1xx_hal_dma.c **** 
 731              		.loc 1 483 5 is_stmt 1 discriminator 24 view .LVU238
 483:C:/Users/vovua/STM32Cube/Repository/STM32Cube_FW_F1_V1.8.4/Drivers/STM32F1xx_HAL_Driver/Src\stm32f1xx_hal_dma.c **** 
ARM GAS  C:\Users\vovua\AppData\Local\Temp\cc7FFceq.s 			page 33


 732              		.loc 1 483 5 discriminator 24 view .LVU239
 733 0064 0023     		movs	r3, #0
 734 0066 80F82030 		strb	r3, [r0, #32]
 483:C:/Users/vovua/STM32Cube/Repository/STM32Cube_FW_F1_V1.8.4/Drivers/STM32F1xx_HAL_Driver/Src\stm32f1xx_hal_dma.c **** 
 735              		.loc 1 483 5 discriminator 24 view .LVU240
 486:C:/Users/vovua/STM32Cube/Repository/STM32Cube_FW_F1_V1.8.4/Drivers/STM32F1xx_HAL_Driver/Src\stm32f1xx_hal_dma.c ****     {
 736              		.loc 1 486 5 discriminator 24 view .LVU241
 486:C:/Users/vovua/STM32Cube/Repository/STM32Cube_FW_F1_V1.8.4/Drivers/STM32F1xx_HAL_Driver/Src\stm32f1xx_hal_dma.c ****     {
 737              		.loc 1 486 12 is_stmt 0 discriminator 24 view .LVU242
 738 006a 436B     		ldr	r3, [r0, #52]
 486:C:/Users/vovua/STM32Cube/Repository/STM32Cube_FW_F1_V1.8.4/Drivers/STM32F1xx_HAL_Driver/Src\stm32f1xx_hal_dma.c ****     {
 739              		.loc 1 486 7 discriminator 24 view .LVU243
 740 006c 6BB1     		cbz	r3, .L51
 488:C:/Users/vovua/STM32Cube/Repository/STM32Cube_FW_F1_V1.8.4/Drivers/STM32F1xx_HAL_Driver/Src\stm32f1xx_hal_dma.c ****     } 
 741              		.loc 1 488 7 is_stmt 1 view .LVU244
 742 006e 9847     		blx	r3
 743              	.LVL46:
 459:C:/Users/vovua/STM32Cube/Repository/STM32Cube_FW_F1_V1.8.4/Drivers/STM32F1xx_HAL_Driver/Src\stm32f1xx_hal_dma.c ****   
 744              		.loc 1 459 21 is_stmt 0 view .LVU245
 745 0070 0020     		movs	r0, #0
 746 0072 CDE7     		b	.L43
 747              	.LVL47:
 748              	.L46:
 477:C:/Users/vovua/STM32Cube/Repository/STM32Cube_FW_F1_V1.8.4/Drivers/STM32F1xx_HAL_Driver/Src\stm32f1xx_hal_dma.c **** 
 749              		.loc 1 477 5 view .LVU246
 750 0074 1022     		movs	r2, #16
 751 0076 F0E7     		b	.L44
 752              	.L47:
 753 0078 4FF48072 		mov	r2, #256
 754 007c EDE7     		b	.L44
 755              	.L48:
 756 007e 4FF48052 		mov	r2, #4096
 757 0082 EAE7     		b	.L44
 758              	.L49:
 759 0084 4FF48032 		mov	r2, #65536
 760 0088 E7E7     		b	.L44
 761              	.L51:
 459:C:/Users/vovua/STM32Cube/Repository/STM32Cube_FW_F1_V1.8.4/Drivers/STM32F1xx_HAL_Driver/Src\stm32f1xx_hal_dma.c ****   
 762              		.loc 1 459 21 view .LVU247
 763 008a 0020     		movs	r0, #0
 764              	.LVL48:
 459:C:/Users/vovua/STM32Cube/Repository/STM32Cube_FW_F1_V1.8.4/Drivers/STM32F1xx_HAL_Driver/Src\stm32f1xx_hal_dma.c ****   
 765              		.loc 1 459 21 view .LVU248
 766 008c C0E7     		b	.L43
 767              	.L55:
 768 008e 00BF     		.align	2
 769              	.L54:
 770 0090 08000240 		.word	1073872904
 771 0094 00000240 		.word	1073872896
 772              		.cfi_endproc
 773              	.LFE70:
 775              		.section	.text.HAL_DMA_PollForTransfer,"ax",%progbits
 776              		.align	1
 777              		.global	HAL_DMA_PollForTransfer
 778              		.syntax unified
 779              		.thumb
 780              		.thumb_func
ARM GAS  C:\Users\vovua\AppData\Local\Temp\cc7FFceq.s 			page 34


 782              	HAL_DMA_PollForTransfer:
 783              	.LVL49:
 784              	.LFB71:
 503:C:/Users/vovua/STM32Cube/Repository/STM32Cube_FW_F1_V1.8.4/Drivers/STM32F1xx_HAL_Driver/Src\stm32f1xx_hal_dma.c ****   uint32_t temp;
 785              		.loc 1 503 1 is_stmt 1 view -0
 786              		.cfi_startproc
 787              		@ args = 0, pretend = 0, frame = 0
 788              		@ frame_needed = 0, uses_anonymous_args = 0
 503:C:/Users/vovua/STM32Cube/Repository/STM32Cube_FW_F1_V1.8.4/Drivers/STM32F1xx_HAL_Driver/Src\stm32f1xx_hal_dma.c ****   uint32_t temp;
 789              		.loc 1 503 1 is_stmt 0 view .LVU250
 790 0000 2DE9F041 		push	{r4, r5, r6, r7, r8, lr}
 791              	.LCFI10:
 792              		.cfi_def_cfa_offset 24
 793              		.cfi_offset 4, -24
 794              		.cfi_offset 5, -20
 795              		.cfi_offset 6, -16
 796              		.cfi_offset 7, -12
 797              		.cfi_offset 8, -8
 798              		.cfi_offset 14, -4
 799 0004 0446     		mov	r4, r0
 504:C:/Users/vovua/STM32Cube/Repository/STM32Cube_FW_F1_V1.8.4/Drivers/STM32F1xx_HAL_Driver/Src\stm32f1xx_hal_dma.c ****   uint32_t tickstart = 0U;
 800              		.loc 1 504 3 is_stmt 1 view .LVU251
 505:C:/Users/vovua/STM32Cube/Repository/STM32Cube_FW_F1_V1.8.4/Drivers/STM32F1xx_HAL_Driver/Src\stm32f1xx_hal_dma.c **** 
 801              		.loc 1 505 3 view .LVU252
 802              	.LVL50:
 507:C:/Users/vovua/STM32Cube/Repository/STM32Cube_FW_F1_V1.8.4/Drivers/STM32F1xx_HAL_Driver/Src\stm32f1xx_hal_dma.c ****   {
 803              		.loc 1 507 3 view .LVU253
 507:C:/Users/vovua/STM32Cube/Repository/STM32Cube_FW_F1_V1.8.4/Drivers/STM32F1xx_HAL_Driver/Src\stm32f1xx_hal_dma.c ****   {
 804              		.loc 1 507 32 is_stmt 0 view .LVU254
 805 0006 90F82130 		ldrb	r3, [r0, #33]	@ zero_extendqisi2
 507:C:/Users/vovua/STM32Cube/Repository/STM32Cube_FW_F1_V1.8.4/Drivers/STM32F1xx_HAL_Driver/Src\stm32f1xx_hal_dma.c ****   {
 806              		.loc 1 507 5 view .LVU255
 807 000a 022B     		cmp	r3, #2
 808 000c 07D0     		beq	.L57
 510:C:/Users/vovua/STM32Cube/Repository/STM32Cube_FW_F1_V1.8.4/Drivers/STM32F1xx_HAL_Driver/Src\stm32f1xx_hal_dma.c ****     __HAL_UNLOCK(hdma);
 809              		.loc 1 510 5 is_stmt 1 view .LVU256
 510:C:/Users/vovua/STM32Cube/Repository/STM32Cube_FW_F1_V1.8.4/Drivers/STM32F1xx_HAL_Driver/Src\stm32f1xx_hal_dma.c ****     __HAL_UNLOCK(hdma);
 810              		.loc 1 510 21 is_stmt 0 view .LVU257
 811 000e 0423     		movs	r3, #4
 812 0010 8363     		str	r3, [r0, #56]
 511:C:/Users/vovua/STM32Cube/Repository/STM32Cube_FW_F1_V1.8.4/Drivers/STM32F1xx_HAL_Driver/Src\stm32f1xx_hal_dma.c ****     return HAL_ERROR;
 813              		.loc 1 511 5 is_stmt 1 view .LVU258
 511:C:/Users/vovua/STM32Cube/Repository/STM32Cube_FW_F1_V1.8.4/Drivers/STM32F1xx_HAL_Driver/Src\stm32f1xx_hal_dma.c ****     return HAL_ERROR;
 814              		.loc 1 511 5 view .LVU259
 815 0012 0023     		movs	r3, #0
 816 0014 80F82030 		strb	r3, [r0, #32]
 511:C:/Users/vovua/STM32Cube/Repository/STM32Cube_FW_F1_V1.8.4/Drivers/STM32F1xx_HAL_Driver/Src\stm32f1xx_hal_dma.c ****     return HAL_ERROR;
 817              		.loc 1 511 5 view .LVU260
 512:C:/Users/vovua/STM32Cube/Repository/STM32Cube_FW_F1_V1.8.4/Drivers/STM32F1xx_HAL_Driver/Src\stm32f1xx_hal_dma.c ****   }
 818              		.loc 1 512 5 view .LVU261
 512:C:/Users/vovua/STM32Cube/Repository/STM32Cube_FW_F1_V1.8.4/Drivers/STM32F1xx_HAL_Driver/Src\stm32f1xx_hal_dma.c ****   }
 819              		.loc 1 512 12 is_stmt 0 view .LVU262
 820 0018 0120     		movs	r0, #1
 821              	.LVL51:
 822              	.L58:
 595:C:/Users/vovua/STM32Cube/Repository/STM32Cube_FW_F1_V1.8.4/Drivers/STM32F1xx_HAL_Driver/Src\stm32f1xx_hal_dma.c **** 
 823              		.loc 1 595 1 view .LVU263
ARM GAS  C:\Users\vovua\AppData\Local\Temp\cc7FFceq.s 			page 35


 824 001a BDE8F081 		pop	{r4, r5, r6, r7, r8, pc}
 825              	.LVL52:
 826              	.L57:
 595:C:/Users/vovua/STM32Cube/Repository/STM32Cube_FW_F1_V1.8.4/Drivers/STM32F1xx_HAL_Driver/Src\stm32f1xx_hal_dma.c **** 
 827              		.loc 1 595 1 view .LVU264
 828 001e 0F46     		mov	r7, r1
 829 0020 1546     		mov	r5, r2
 516:C:/Users/vovua/STM32Cube/Repository/STM32Cube_FW_F1_V1.8.4/Drivers/STM32F1xx_HAL_Driver/Src\stm32f1xx_hal_dma.c ****   {
 830              		.loc 1 516 3 is_stmt 1 view .LVU265
 516:C:/Users/vovua/STM32Cube/Repository/STM32Cube_FW_F1_V1.8.4/Drivers/STM32F1xx_HAL_Driver/Src\stm32f1xx_hal_dma.c ****   {
 831              		.loc 1 516 21 is_stmt 0 view .LVU266
 832 0022 0368     		ldr	r3, [r0]
 516:C:/Users/vovua/STM32Cube/Repository/STM32Cube_FW_F1_V1.8.4/Drivers/STM32F1xx_HAL_Driver/Src\stm32f1xx_hal_dma.c ****   {
 833              		.loc 1 516 31 view .LVU267
 834 0024 1A68     		ldr	r2, [r3]
 835              	.LVL53:
 516:C:/Users/vovua/STM32Cube/Repository/STM32Cube_FW_F1_V1.8.4/Drivers/STM32F1xx_HAL_Driver/Src\stm32f1xx_hal_dma.c ****   {
 836              		.loc 1 516 6 view .LVU268
 837 0026 12F0200F 		tst	r2, #32
 838 002a 15D1     		bne	.L103
 523:C:/Users/vovua/STM32Cube/Repository/STM32Cube_FW_F1_V1.8.4/Drivers/STM32F1xx_HAL_Driver/Src\stm32f1xx_hal_dma.c ****   {
 839              		.loc 1 523 3 is_stmt 1 view .LVU269
 523:C:/Users/vovua/STM32Cube/Repository/STM32Cube_FW_F1_V1.8.4/Drivers/STM32F1xx_HAL_Driver/Src\stm32f1xx_hal_dma.c ****   {
 840              		.loc 1 523 5 is_stmt 0 view .LVU270
 841 002c E1B9     		cbnz	r1, .L60
 526:C:/Users/vovua/STM32Cube/Repository/STM32Cube_FW_F1_V1.8.4/Drivers/STM32F1xx_HAL_Driver/Src\stm32f1xx_hal_dma.c ****   }
 842              		.loc 1 526 5 is_stmt 1 view .LVU271
 526:C:/Users/vovua/STM32Cube/Repository/STM32Cube_FW_F1_V1.8.4/Drivers/STM32F1xx_HAL_Driver/Src\stm32f1xx_hal_dma.c ****   }
 843              		.loc 1 526 12 is_stmt 0 view .LVU272
 844 002e 7D4A     		ldr	r2, .L112
 845 0030 9342     		cmp	r3, r2
 846 0032 31D0     		beq	.L72
 526:C:/Users/vovua/STM32Cube/Repository/STM32Cube_FW_F1_V1.8.4/Drivers/STM32F1xx_HAL_Driver/Src\stm32f1xx_hal_dma.c ****   }
 847              		.loc 1 526 12 discriminator 1 view .LVU273
 848 0034 1432     		adds	r2, r2, #20
 849 0036 9342     		cmp	r3, r2
 850 0038 33D0     		beq	.L73
 526:C:/Users/vovua/STM32Cube/Repository/STM32Cube_FW_F1_V1.8.4/Drivers/STM32F1xx_HAL_Driver/Src\stm32f1xx_hal_dma.c ****   }
 851              		.loc 1 526 12 discriminator 3 view .LVU274
 852 003a 1432     		adds	r2, r2, #20
 853 003c 9342     		cmp	r3, r2
 854 003e 32D0     		beq	.L74
 526:C:/Users/vovua/STM32Cube/Repository/STM32Cube_FW_F1_V1.8.4/Drivers/STM32F1xx_HAL_Driver/Src\stm32f1xx_hal_dma.c ****   }
 855              		.loc 1 526 12 discriminator 5 view .LVU275
 856 0040 1432     		adds	r2, r2, #20
 857 0042 9342     		cmp	r3, r2
 858 0044 32D0     		beq	.L75
 526:C:/Users/vovua/STM32Cube/Repository/STM32Cube_FW_F1_V1.8.4/Drivers/STM32F1xx_HAL_Driver/Src\stm32f1xx_hal_dma.c ****   }
 859              		.loc 1 526 12 discriminator 7 view .LVU276
 860 0046 1432     		adds	r2, r2, #20
 861 0048 9342     		cmp	r3, r2
 862 004a 32D0     		beq	.L76
 526:C:/Users/vovua/STM32Cube/Repository/STM32Cube_FW_F1_V1.8.4/Drivers/STM32F1xx_HAL_Driver/Src\stm32f1xx_hal_dma.c ****   }
 863              		.loc 1 526 12 discriminator 9 view .LVU277
 864 004c 1432     		adds	r2, r2, #20
 865 004e 9342     		cmp	r3, r2
 866 0050 07D0     		beq	.L104
ARM GAS  C:\Users\vovua\AppData\Local\Temp\cc7FFceq.s 			page 36


 526:C:/Users/vovua/STM32Cube/Repository/STM32Cube_FW_F1_V1.8.4/Drivers/STM32F1xx_HAL_Driver/Src\stm32f1xx_hal_dma.c ****   }
 867              		.loc 1 526 12 view .LVU278
 868 0052 4FF00076 		mov	r6, #33554432
 869 0056 20E0     		b	.L61
 870              	.L103:
 518:C:/Users/vovua/STM32Cube/Repository/STM32Cube_FW_F1_V1.8.4/Drivers/STM32F1xx_HAL_Driver/Src\stm32f1xx_hal_dma.c ****     return HAL_ERROR;
 871              		.loc 1 518 5 is_stmt 1 view .LVU279
 518:C:/Users/vovua/STM32Cube/Repository/STM32Cube_FW_F1_V1.8.4/Drivers/STM32F1xx_HAL_Driver/Src\stm32f1xx_hal_dma.c ****     return HAL_ERROR;
 872              		.loc 1 518 21 is_stmt 0 view .LVU280
 873 0058 4FF48073 		mov	r3, #256
 874 005c 8363     		str	r3, [r0, #56]
 519:C:/Users/vovua/STM32Cube/Repository/STM32Cube_FW_F1_V1.8.4/Drivers/STM32F1xx_HAL_Driver/Src\stm32f1xx_hal_dma.c ****   }
 875              		.loc 1 519 5 is_stmt 1 view .LVU281
 519:C:/Users/vovua/STM32Cube/Repository/STM32Cube_FW_F1_V1.8.4/Drivers/STM32F1xx_HAL_Driver/Src\stm32f1xx_hal_dma.c ****   }
 876              		.loc 1 519 12 is_stmt 0 view .LVU282
 877 005e 0120     		movs	r0, #1
 878              	.LVL54:
 519:C:/Users/vovua/STM32Cube/Repository/STM32Cube_FW_F1_V1.8.4/Drivers/STM32F1xx_HAL_Driver/Src\stm32f1xx_hal_dma.c ****   }
 879              		.loc 1 519 12 view .LVU283
 880 0060 DBE7     		b	.L58
 881              	.LVL55:
 882              	.L104:
 526:C:/Users/vovua/STM32Cube/Repository/STM32Cube_FW_F1_V1.8.4/Drivers/STM32F1xx_HAL_Driver/Src\stm32f1xx_hal_dma.c ****   }
 883              		.loc 1 526 12 view .LVU284
 884 0062 4FF40016 		mov	r6, #2097152
 885 0066 18E0     		b	.L61
 886              	.L60:
 531:C:/Users/vovua/STM32Cube/Repository/STM32Cube_FW_F1_V1.8.4/Drivers/STM32F1xx_HAL_Driver/Src\stm32f1xx_hal_dma.c ****   }
 887              		.loc 1 531 5 is_stmt 1 view .LVU285
 531:C:/Users/vovua/STM32Cube/Repository/STM32Cube_FW_F1_V1.8.4/Drivers/STM32F1xx_HAL_Driver/Src\stm32f1xx_hal_dma.c ****   }
 888              		.loc 1 531 12 is_stmt 0 view .LVU286
 889 0068 6E4A     		ldr	r2, .L112
 890 006a 9342     		cmp	r3, r2
 891 006c 24D0     		beq	.L78
 531:C:/Users/vovua/STM32Cube/Repository/STM32Cube_FW_F1_V1.8.4/Drivers/STM32F1xx_HAL_Driver/Src\stm32f1xx_hal_dma.c ****   }
 892              		.loc 1 531 12 discriminator 1 view .LVU287
 893 006e 1432     		adds	r2, r2, #20
 894 0070 9342     		cmp	r3, r2
 895 0072 23D0     		beq	.L79
 531:C:/Users/vovua/STM32Cube/Repository/STM32Cube_FW_F1_V1.8.4/Drivers/STM32F1xx_HAL_Driver/Src\stm32f1xx_hal_dma.c ****   }
 896              		.loc 1 531 12 discriminator 3 view .LVU288
 897 0074 1432     		adds	r2, r2, #20
 898 0076 9342     		cmp	r3, r2
 899 0078 22D0     		beq	.L80
 531:C:/Users/vovua/STM32Cube/Repository/STM32Cube_FW_F1_V1.8.4/Drivers/STM32F1xx_HAL_Driver/Src\stm32f1xx_hal_dma.c ****   }
 900              		.loc 1 531 12 discriminator 5 view .LVU289
 901 007a 1432     		adds	r2, r2, #20
 902 007c 9342     		cmp	r3, r2
 903 007e 22D0     		beq	.L81
 531:C:/Users/vovua/STM32Cube/Repository/STM32Cube_FW_F1_V1.8.4/Drivers/STM32F1xx_HAL_Driver/Src\stm32f1xx_hal_dma.c ****   }
 904              		.loc 1 531 12 discriminator 7 view .LVU290
 905 0080 1432     		adds	r2, r2, #20
 906 0082 9342     		cmp	r3, r2
 907 0084 22D0     		beq	.L82
 531:C:/Users/vovua/STM32Cube/Repository/STM32Cube_FW_F1_V1.8.4/Drivers/STM32F1xx_HAL_Driver/Src\stm32f1xx_hal_dma.c ****   }
 908              		.loc 1 531 12 discriminator 9 view .LVU291
 909 0086 1432     		adds	r2, r2, #20
ARM GAS  C:\Users\vovua\AppData\Local\Temp\cc7FFceq.s 			page 37


 910 0088 9342     		cmp	r3, r2
 911 008a 02D0     		beq	.L105
 531:C:/Users/vovua/STM32Cube/Repository/STM32Cube_FW_F1_V1.8.4/Drivers/STM32F1xx_HAL_Driver/Src\stm32f1xx_hal_dma.c ****   }
 912              		.loc 1 531 12 view .LVU292
 913 008c 4FF08066 		mov	r6, #67108864
 914 0090 03E0     		b	.L61
 915              	.L105:
 916 0092 4FF48006 		mov	r6, #4194304
 917 0096 00E0     		b	.L61
 918              	.L72:
 526:C:/Users/vovua/STM32Cube/Repository/STM32Cube_FW_F1_V1.8.4/Drivers/STM32F1xx_HAL_Driver/Src\stm32f1xx_hal_dma.c ****   }
 919              		.loc 1 526 12 view .LVU293
 920 0098 0226     		movs	r6, #2
 921              	.L61:
 922              	.LVL56:
 535:C:/Users/vovua/STM32Cube/Repository/STM32Cube_FW_F1_V1.8.4/Drivers/STM32F1xx_HAL_Driver/Src\stm32f1xx_hal_dma.c **** 
 923              		.loc 1 535 3 is_stmt 1 view .LVU294
 535:C:/Users/vovua/STM32Cube/Repository/STM32Cube_FW_F1_V1.8.4/Drivers/STM32F1xx_HAL_Driver/Src\stm32f1xx_hal_dma.c **** 
 924              		.loc 1 535 15 is_stmt 0 view .LVU295
 925 009a FFF7FEFF 		bl	HAL_GetTick
 926              	.LVL57:
 535:C:/Users/vovua/STM32Cube/Repository/STM32Cube_FW_F1_V1.8.4/Drivers/STM32F1xx_HAL_Driver/Src\stm32f1xx_hal_dma.c **** 
 927              		.loc 1 535 15 view .LVU296
 928 009e 8046     		mov	r8, r0
 929              	.LVL58:
 537:C:/Users/vovua/STM32Cube/Repository/STM32Cube_FW_F1_V1.8.4/Drivers/STM32F1xx_HAL_Driver/Src\stm32f1xx_hal_dma.c ****   {
 930              		.loc 1 537 3 is_stmt 1 view .LVU297
 537:C:/Users/vovua/STM32Cube/Repository/STM32Cube_FW_F1_V1.8.4/Drivers/STM32F1xx_HAL_Driver/Src\stm32f1xx_hal_dma.c ****   {
 931              		.loc 1 537 8 is_stmt 0 view .LVU298
 932 00a0 20E0     		b	.L65
 933              	.LVL59:
 934              	.L73:
 526:C:/Users/vovua/STM32Cube/Repository/STM32Cube_FW_F1_V1.8.4/Drivers/STM32F1xx_HAL_Driver/Src\stm32f1xx_hal_dma.c ****   }
 935              		.loc 1 526 12 view .LVU299
 936 00a2 2026     		movs	r6, #32
 937 00a4 F9E7     		b	.L61
 938              	.L74:
 939 00a6 4FF40076 		mov	r6, #512
 940 00aa F6E7     		b	.L61
 941              	.L75:
 942 00ac 4FF40056 		mov	r6, #8192
 943 00b0 F3E7     		b	.L61
 944              	.L76:
 945 00b2 4FF40036 		mov	r6, #131072
 946 00b6 F0E7     		b	.L61
 947              	.L78:
 531:C:/Users/vovua/STM32Cube/Repository/STM32Cube_FW_F1_V1.8.4/Drivers/STM32F1xx_HAL_Driver/Src\stm32f1xx_hal_dma.c ****   }
 948              		.loc 1 531 12 view .LVU300
 949 00b8 0426     		movs	r6, #4
 950 00ba EEE7     		b	.L61
 951              	.L79:
 952 00bc 4026     		movs	r6, #64
 953 00be ECE7     		b	.L61
 954              	.L80:
 955 00c0 4FF48066 		mov	r6, #1024
 956 00c4 E9E7     		b	.L61
 957              	.L81:
ARM GAS  C:\Users\vovua\AppData\Local\Temp\cc7FFceq.s 			page 38


 958 00c6 4FF48046 		mov	r6, #16384
 959 00ca E6E7     		b	.L61
 960              	.L82:
 961 00cc 4FF48026 		mov	r6, #262144
 962 00d0 E3E7     		b	.L61
 963              	.LVL60:
 964              	.L109:
 539:C:/Users/vovua/STM32Cube/Repository/STM32Cube_FW_F1_V1.8.4/Drivers/STM32F1xx_HAL_Driver/Src\stm32f1xx_hal_dma.c ****     {
 965              		.loc 1 539 9 view .LVU301
 966 00d2 4FF40003 		mov	r3, #8388608
 967 00d6 00E0     		b	.L63
 968              	.L84:
 969 00d8 0823     		movs	r3, #8
 970              	.L63:
 539:C:/Users/vovua/STM32Cube/Repository/STM32Cube_FW_F1_V1.8.4/Drivers/STM32F1xx_HAL_Driver/Src\stm32f1xx_hal_dma.c ****     {
 971              		.loc 1 539 7 discriminator 24 view .LVU302
 972 00da 1A42     		tst	r2, r3
 973 00dc 29D1     		bne	.L106
 558:C:/Users/vovua/STM32Cube/Repository/STM32Cube_FW_F1_V1.8.4/Drivers/STM32F1xx_HAL_Driver/Src\stm32f1xx_hal_dma.c ****     {
 974              		.loc 1 558 5 is_stmt 1 view .LVU303
 558:C:/Users/vovua/STM32Cube/Repository/STM32Cube_FW_F1_V1.8.4/Drivers/STM32F1xx_HAL_Driver/Src\stm32f1xx_hal_dma.c ****     {
 975              		.loc 1 558 7 is_stmt 0 view .LVU304
 976 00de B5F1FF3F 		cmp	r5, #-1
 977 00e2 35D1     		bne	.L107
 978              	.L65:
 537:C:/Users/vovua/STM32Cube/Repository/STM32Cube_FW_F1_V1.8.4/Drivers/STM32F1xx_HAL_Driver/Src\stm32f1xx_hal_dma.c ****   {
 979              		.loc 1 537 40 is_stmt 1 view .LVU305
 537:C:/Users/vovua/STM32Cube/Repository/STM32Cube_FW_F1_V1.8.4/Drivers/STM32F1xx_HAL_Driver/Src\stm32f1xx_hal_dma.c ****   {
 980              		.loc 1 537 9 is_stmt 0 view .LVU306
 981 00e4 504B     		ldr	r3, .L112+4
 982 00e6 1B68     		ldr	r3, [r3]
 537:C:/Users/vovua/STM32Cube/Repository/STM32Cube_FW_F1_V1.8.4/Drivers/STM32F1xx_HAL_Driver/Src\stm32f1xx_hal_dma.c ****   {
 983              		.loc 1 537 40 view .LVU307
 984 00e8 3342     		tst	r3, r6
 985 00ea 43D1     		bne	.L108
 539:C:/Users/vovua/STM32Cube/Repository/STM32Cube_FW_F1_V1.8.4/Drivers/STM32F1xx_HAL_Driver/Src\stm32f1xx_hal_dma.c ****     {
 986              		.loc 1 539 5 is_stmt 1 view .LVU308
 539:C:/Users/vovua/STM32Cube/Repository/STM32Cube_FW_F1_V1.8.4/Drivers/STM32F1xx_HAL_Driver/Src\stm32f1xx_hal_dma.c ****     {
 987              		.loc 1 539 9 is_stmt 0 view .LVU309
 988 00ec 4E4B     		ldr	r3, .L112+4
 989 00ee 1A68     		ldr	r2, [r3]
 990 00f0 2368     		ldr	r3, [r4]
 991 00f2 4C49     		ldr	r1, .L112
 992 00f4 8B42     		cmp	r3, r1
 993 00f6 EFD0     		beq	.L84
 539:C:/Users/vovua/STM32Cube/Repository/STM32Cube_FW_F1_V1.8.4/Drivers/STM32F1xx_HAL_Driver/Src\stm32f1xx_hal_dma.c ****     {
 994              		.loc 1 539 9 discriminator 1 view .LVU310
 995 00f8 1431     		adds	r1, r1, #20
 996 00fa 8B42     		cmp	r3, r1
 997 00fc 0ED0     		beq	.L85
 539:C:/Users/vovua/STM32Cube/Repository/STM32Cube_FW_F1_V1.8.4/Drivers/STM32F1xx_HAL_Driver/Src\stm32f1xx_hal_dma.c ****     {
 998              		.loc 1 539 9 discriminator 3 view .LVU311
 999 00fe 1431     		adds	r1, r1, #20
 1000 0100 8B42     		cmp	r3, r1
 1001 0102 0DD0     		beq	.L86
 539:C:/Users/vovua/STM32Cube/Repository/STM32Cube_FW_F1_V1.8.4/Drivers/STM32F1xx_HAL_Driver/Src\stm32f1xx_hal_dma.c ****     {
 1002              		.loc 1 539 9 discriminator 5 view .LVU312
ARM GAS  C:\Users\vovua\AppData\Local\Temp\cc7FFceq.s 			page 39


 1003 0104 1431     		adds	r1, r1, #20
 1004 0106 8B42     		cmp	r3, r1
 1005 0108 0DD0     		beq	.L87
 539:C:/Users/vovua/STM32Cube/Repository/STM32Cube_FW_F1_V1.8.4/Drivers/STM32F1xx_HAL_Driver/Src\stm32f1xx_hal_dma.c ****     {
 1006              		.loc 1 539 9 discriminator 7 view .LVU313
 1007 010a 1431     		adds	r1, r1, #20
 1008 010c 8B42     		cmp	r3, r1
 1009 010e 0DD0     		beq	.L88
 539:C:/Users/vovua/STM32Cube/Repository/STM32Cube_FW_F1_V1.8.4/Drivers/STM32F1xx_HAL_Driver/Src\stm32f1xx_hal_dma.c ****     {
 1010              		.loc 1 539 9 discriminator 9 view .LVU314
 1011 0110 1431     		adds	r1, r1, #20
 1012 0112 8B42     		cmp	r3, r1
 1013 0114 DDD0     		beq	.L109
 539:C:/Users/vovua/STM32Cube/Repository/STM32Cube_FW_F1_V1.8.4/Drivers/STM32F1xx_HAL_Driver/Src\stm32f1xx_hal_dma.c ****     {
 1014              		.loc 1 539 9 view .LVU315
 1015 0116 4FF00063 		mov	r3, #134217728
 1016 011a DEE7     		b	.L63
 1017              	.L85:
 1018 011c 8023     		movs	r3, #128
 1019 011e DCE7     		b	.L63
 1020              	.L86:
 1021 0120 4FF40063 		mov	r3, #2048
 1022 0124 D9E7     		b	.L63
 1023              	.L87:
 1024 0126 4FF40043 		mov	r3, #32768
 1025 012a D6E7     		b	.L63
 1026              	.L88:
 1027 012c 4FF40023 		mov	r3, #524288
 1028 0130 D3E7     		b	.L63
 1029              	.L106:
 544:C:/Users/vovua/STM32Cube/Repository/STM32Cube_FW_F1_V1.8.4/Drivers/STM32F1xx_HAL_Driver/Src\stm32f1xx_hal_dma.c **** 
 1030              		.loc 1 544 7 is_stmt 1 view .LVU316
 544:C:/Users/vovua/STM32Cube/Repository/STM32Cube_FW_F1_V1.8.4/Drivers/STM32F1xx_HAL_Driver/Src\stm32f1xx_hal_dma.c **** 
 1031              		.loc 1 544 57 is_stmt 0 view .LVU317
 1032 0132 236C     		ldr	r3, [r4, #64]
 544:C:/Users/vovua/STM32Cube/Repository/STM32Cube_FW_F1_V1.8.4/Drivers/STM32F1xx_HAL_Driver/Src\stm32f1xx_hal_dma.c **** 
 1033              		.loc 1 544 11 view .LVU318
 1034 0134 E26B     		ldr	r2, [r4, #60]
 544:C:/Users/vovua/STM32Cube/Repository/STM32Cube_FW_F1_V1.8.4/Drivers/STM32F1xx_HAL_Driver/Src\stm32f1xx_hal_dma.c **** 
 1035              		.loc 1 544 50 view .LVU319
 1036 0136 0120     		movs	r0, #1
 1037 0138 00FA03F3 		lsl	r3, r0, r3
 544:C:/Users/vovua/STM32Cube/Repository/STM32Cube_FW_F1_V1.8.4/Drivers/STM32F1xx_HAL_Driver/Src\stm32f1xx_hal_dma.c **** 
 1038              		.loc 1 544 34 view .LVU320
 1039 013c 5360     		str	r3, [r2, #4]
 547:C:/Users/vovua/STM32Cube/Repository/STM32Cube_FW_F1_V1.8.4/Drivers/STM32F1xx_HAL_Driver/Src\stm32f1xx_hal_dma.c **** 
 1040              		.loc 1 547 7 is_stmt 1 view .LVU321
 1041 013e A36B     		ldr	r3, [r4, #56]
 1042 0140 0343     		orrs	r3, r3, r0
 1043 0142 A363     		str	r3, [r4, #56]
 550:C:/Users/vovua/STM32Cube/Repository/STM32Cube_FW_F1_V1.8.4/Drivers/STM32F1xx_HAL_Driver/Src\stm32f1xx_hal_dma.c **** 
 1044              		.loc 1 550 7 view .LVU322
 550:C:/Users/vovua/STM32Cube/Repository/STM32Cube_FW_F1_V1.8.4/Drivers/STM32F1xx_HAL_Driver/Src\stm32f1xx_hal_dma.c **** 
 1045              		.loc 1 550 18 is_stmt 0 view .LVU323
 1046 0144 84F82100 		strb	r0, [r4, #33]
 553:C:/Users/vovua/STM32Cube/Repository/STM32Cube_FW_F1_V1.8.4/Drivers/STM32F1xx_HAL_Driver/Src\stm32f1xx_hal_dma.c **** 
 1047              		.loc 1 553 7 is_stmt 1 view .LVU324
ARM GAS  C:\Users\vovua\AppData\Local\Temp\cc7FFceq.s 			page 40


 553:C:/Users/vovua/STM32Cube/Repository/STM32Cube_FW_F1_V1.8.4/Drivers/STM32F1xx_HAL_Driver/Src\stm32f1xx_hal_dma.c **** 
 1048              		.loc 1 553 7 view .LVU325
 1049 0148 0023     		movs	r3, #0
 1050 014a 84F82030 		strb	r3, [r4, #32]
 553:C:/Users/vovua/STM32Cube/Repository/STM32Cube_FW_F1_V1.8.4/Drivers/STM32F1xx_HAL_Driver/Src\stm32f1xx_hal_dma.c **** 
 1051              		.loc 1 553 7 view .LVU326
 555:C:/Users/vovua/STM32Cube/Repository/STM32Cube_FW_F1_V1.8.4/Drivers/STM32F1xx_HAL_Driver/Src\stm32f1xx_hal_dma.c ****     }
 1052              		.loc 1 555 7 view .LVU327
 555:C:/Users/vovua/STM32Cube/Repository/STM32Cube_FW_F1_V1.8.4/Drivers/STM32F1xx_HAL_Driver/Src\stm32f1xx_hal_dma.c ****     }
 1053              		.loc 1 555 14 is_stmt 0 view .LVU328
 1054 014e 64E7     		b	.L58
 1055              	.L107:
 560:C:/Users/vovua/STM32Cube/Repository/STM32Cube_FW_F1_V1.8.4/Drivers/STM32F1xx_HAL_Driver/Src\stm32f1xx_hal_dma.c ****       {
 1056              		.loc 1 560 7 is_stmt 1 view .LVU329
 560:C:/Users/vovua/STM32Cube/Repository/STM32Cube_FW_F1_V1.8.4/Drivers/STM32F1xx_HAL_Driver/Src\stm32f1xx_hal_dma.c ****       {
 1057              		.loc 1 560 9 is_stmt 0 view .LVU330
 1058 0150 2DB1     		cbz	r5, .L66
 560:C:/Users/vovua/STM32Cube/Repository/STM32Cube_FW_F1_V1.8.4/Drivers/STM32F1xx_HAL_Driver/Src\stm32f1xx_hal_dma.c ****       {
 1059              		.loc 1 560 31 discriminator 1 view .LVU331
 1060 0152 FFF7FEFF 		bl	HAL_GetTick
 1061              	.LVL61:
 560:C:/Users/vovua/STM32Cube/Repository/STM32Cube_FW_F1_V1.8.4/Drivers/STM32F1xx_HAL_Driver/Src\stm32f1xx_hal_dma.c ****       {
 1062              		.loc 1 560 45 discriminator 1 view .LVU332
 1063 0156 A0EB0800 		sub	r0, r0, r8
 560:C:/Users/vovua/STM32Cube/Repository/STM32Cube_FW_F1_V1.8.4/Drivers/STM32F1xx_HAL_Driver/Src\stm32f1xx_hal_dma.c ****       {
 1064              		.loc 1 560 26 discriminator 1 view .LVU333
 1065 015a A842     		cmp	r0, r5
 1066 015c C2D9     		bls	.L65
 1067              	.L66:
 563:C:/Users/vovua/STM32Cube/Repository/STM32Cube_FW_F1_V1.8.4/Drivers/STM32F1xx_HAL_Driver/Src\stm32f1xx_hal_dma.c **** 
 1068              		.loc 1 563 9 is_stmt 1 view .LVU334
 1069 015e A36B     		ldr	r3, [r4, #56]
 1070 0160 43F02003 		orr	r3, r3, #32
 1071 0164 A363     		str	r3, [r4, #56]
 566:C:/Users/vovua/STM32Cube/Repository/STM32Cube_FW_F1_V1.8.4/Drivers/STM32F1xx_HAL_Driver/Src\stm32f1xx_hal_dma.c **** 
 1072              		.loc 1 566 9 view .LVU335
 566:C:/Users/vovua/STM32Cube/Repository/STM32Cube_FW_F1_V1.8.4/Drivers/STM32F1xx_HAL_Driver/Src\stm32f1xx_hal_dma.c **** 
 1073              		.loc 1 566 21 is_stmt 0 view .LVU336
 1074 0166 0120     		movs	r0, #1
 1075 0168 84F82100 		strb	r0, [r4, #33]
 569:C:/Users/vovua/STM32Cube/Repository/STM32Cube_FW_F1_V1.8.4/Drivers/STM32F1xx_HAL_Driver/Src\stm32f1xx_hal_dma.c **** 
 1076              		.loc 1 569 9 is_stmt 1 view .LVU337
 569:C:/Users/vovua/STM32Cube/Repository/STM32Cube_FW_F1_V1.8.4/Drivers/STM32F1xx_HAL_Driver/Src\stm32f1xx_hal_dma.c **** 
 1077              		.loc 1 569 9 view .LVU338
 1078 016c 0023     		movs	r3, #0
 1079 016e 84F82030 		strb	r3, [r4, #32]
 569:C:/Users/vovua/STM32Cube/Repository/STM32Cube_FW_F1_V1.8.4/Drivers/STM32F1xx_HAL_Driver/Src\stm32f1xx_hal_dma.c **** 
 1080              		.loc 1 569 9 view .LVU339
 571:C:/Users/vovua/STM32Cube/Repository/STM32Cube_FW_F1_V1.8.4/Drivers/STM32F1xx_HAL_Driver/Src\stm32f1xx_hal_dma.c ****       }
 1081              		.loc 1 571 9 view .LVU340
 571:C:/Users/vovua/STM32Cube/Repository/STM32Cube_FW_F1_V1.8.4/Drivers/STM32F1xx_HAL_Driver/Src\stm32f1xx_hal_dma.c ****       }
 1082              		.loc 1 571 16 is_stmt 0 view .LVU341
 1083 0172 52E7     		b	.L58
 1084              	.L108:
 576:C:/Users/vovua/STM32Cube/Repository/STM32Cube_FW_F1_V1.8.4/Drivers/STM32F1xx_HAL_Driver/Src\stm32f1xx_hal_dma.c ****   {
 1085              		.loc 1 576 3 is_stmt 1 view .LVU342
 576:C:/Users/vovua/STM32Cube/Repository/STM32Cube_FW_F1_V1.8.4/Drivers/STM32F1xx_HAL_Driver/Src\stm32f1xx_hal_dma.c ****   {
ARM GAS  C:\Users\vovua\AppData\Local\Temp\cc7FFceq.s 			page 41


 1086              		.loc 1 576 5 is_stmt 0 view .LVU343
 1087 0174 6FBB     		cbnz	r7, .L68
 579:C:/Users/vovua/STM32Cube/Repository/STM32Cube_FW_F1_V1.8.4/Drivers/STM32F1xx_HAL_Driver/Src\stm32f1xx_hal_dma.c **** 
 1088              		.loc 1 579 5 is_stmt 1 view .LVU344
 1089 0176 2368     		ldr	r3, [r4]
 1090 0178 2A4A     		ldr	r2, .L112
 1091 017a 9342     		cmp	r3, r2
 1092 017c 14D0     		beq	.L90
 579:C:/Users/vovua/STM32Cube/Repository/STM32Cube_FW_F1_V1.8.4/Drivers/STM32F1xx_HAL_Driver/Src\stm32f1xx_hal_dma.c **** 
 1093              		.loc 1 579 5 is_stmt 0 discriminator 1 view .LVU345
 1094 017e 1432     		adds	r2, r2, #20
 1095 0180 9342     		cmp	r3, r2
 1096 0182 1BD0     		beq	.L91
 579:C:/Users/vovua/STM32Cube/Repository/STM32Cube_FW_F1_V1.8.4/Drivers/STM32F1xx_HAL_Driver/Src\stm32f1xx_hal_dma.c **** 
 1097              		.loc 1 579 5 discriminator 3 view .LVU346
 1098 0184 1432     		adds	r2, r2, #20
 1099 0186 9342     		cmp	r3, r2
 1100 0188 1AD0     		beq	.L92
 579:C:/Users/vovua/STM32Cube/Repository/STM32Cube_FW_F1_V1.8.4/Drivers/STM32F1xx_HAL_Driver/Src\stm32f1xx_hal_dma.c **** 
 1101              		.loc 1 579 5 discriminator 5 view .LVU347
 1102 018a 1432     		adds	r2, r2, #20
 1103 018c 9342     		cmp	r3, r2
 1104 018e 1AD0     		beq	.L93
 579:C:/Users/vovua/STM32Cube/Repository/STM32Cube_FW_F1_V1.8.4/Drivers/STM32F1xx_HAL_Driver/Src\stm32f1xx_hal_dma.c **** 
 1105              		.loc 1 579 5 discriminator 7 view .LVU348
 1106 0190 1432     		adds	r2, r2, #20
 1107 0192 9342     		cmp	r3, r2
 1108 0194 1AD0     		beq	.L94
 579:C:/Users/vovua/STM32Cube/Repository/STM32Cube_FW_F1_V1.8.4/Drivers/STM32F1xx_HAL_Driver/Src\stm32f1xx_hal_dma.c **** 
 1109              		.loc 1 579 5 discriminator 9 view .LVU349
 1110 0196 1432     		adds	r2, r2, #20
 1111 0198 9342     		cmp	r3, r2
 1112 019a 02D0     		beq	.L110
 579:C:/Users/vovua/STM32Cube/Repository/STM32Cube_FW_F1_V1.8.4/Drivers/STM32F1xx_HAL_Driver/Src\stm32f1xx_hal_dma.c **** 
 1113              		.loc 1 579 5 view .LVU350
 1114 019c 4FF00072 		mov	r2, #33554432
 1115 01a0 03E0     		b	.L69
 1116              	.L110:
 1117 01a2 4FF40012 		mov	r2, #2097152
 1118 01a6 00E0     		b	.L69
 1119              	.L90:
 1120 01a8 0222     		movs	r2, #2
 1121              	.L69:
 579:C:/Users/vovua/STM32Cube/Repository/STM32Cube_FW_F1_V1.8.4/Drivers/STM32F1xx_HAL_Driver/Src\stm32f1xx_hal_dma.c **** 
 1122              		.loc 1 579 5 discriminator 24 view .LVU351
 1123 01aa 1F4B     		ldr	r3, .L112+4
 1124 01ac 5A60     		str	r2, [r3, #4]
 583:C:/Users/vovua/STM32Cube/Repository/STM32Cube_FW_F1_V1.8.4/Drivers/STM32F1xx_HAL_Driver/Src\stm32f1xx_hal_dma.c ****   }
 1125              		.loc 1 583 5 is_stmt 1 discriminator 24 view .LVU352
 583:C:/Users/vovua/STM32Cube/Repository/STM32Cube_FW_F1_V1.8.4/Drivers/STM32F1xx_HAL_Driver/Src\stm32f1xx_hal_dma.c ****   }
 1126              		.loc 1 583 17 is_stmt 0 discriminator 24 view .LVU353
 1127 01ae 0123     		movs	r3, #1
 1128 01b0 84F82130 		strb	r3, [r4, #33]
 1129              	.L70:
 592:C:/Users/vovua/STM32Cube/Repository/STM32Cube_FW_F1_V1.8.4/Drivers/STM32F1xx_HAL_Driver/Src\stm32f1xx_hal_dma.c **** 
 1130              		.loc 1 592 3 is_stmt 1 view .LVU354
 592:C:/Users/vovua/STM32Cube/Repository/STM32Cube_FW_F1_V1.8.4/Drivers/STM32F1xx_HAL_Driver/Src\stm32f1xx_hal_dma.c **** 
ARM GAS  C:\Users\vovua\AppData\Local\Temp\cc7FFceq.s 			page 42


 1131              		.loc 1 592 3 view .LVU355
 1132 01b4 0020     		movs	r0, #0
 1133 01b6 84F82000 		strb	r0, [r4, #32]
 592:C:/Users/vovua/STM32Cube/Repository/STM32Cube_FW_F1_V1.8.4/Drivers/STM32F1xx_HAL_Driver/Src\stm32f1xx_hal_dma.c **** 
 1134              		.loc 1 592 3 view .LVU356
 594:C:/Users/vovua/STM32Cube/Repository/STM32Cube_FW_F1_V1.8.4/Drivers/STM32F1xx_HAL_Driver/Src\stm32f1xx_hal_dma.c **** }
 1135              		.loc 1 594 3 view .LVU357
 594:C:/Users/vovua/STM32Cube/Repository/STM32Cube_FW_F1_V1.8.4/Drivers/STM32F1xx_HAL_Driver/Src\stm32f1xx_hal_dma.c **** }
 1136              		.loc 1 594 10 is_stmt 0 view .LVU358
 1137 01ba 2EE7     		b	.L58
 1138              	.L91:
 579:C:/Users/vovua/STM32Cube/Repository/STM32Cube_FW_F1_V1.8.4/Drivers/STM32F1xx_HAL_Driver/Src\stm32f1xx_hal_dma.c **** 
 1139              		.loc 1 579 5 view .LVU359
 1140 01bc 2022     		movs	r2, #32
 1141 01be F4E7     		b	.L69
 1142              	.L92:
 1143 01c0 4FF40072 		mov	r2, #512
 1144 01c4 F1E7     		b	.L69
 1145              	.L93:
 1146 01c6 4FF40052 		mov	r2, #8192
 1147 01ca EEE7     		b	.L69
 1148              	.L94:
 1149 01cc 4FF40032 		mov	r2, #131072
 1150 01d0 EBE7     		b	.L69
 1151              	.L68:
 588:C:/Users/vovua/STM32Cube/Repository/STM32Cube_FW_F1_V1.8.4/Drivers/STM32F1xx_HAL_Driver/Src\stm32f1xx_hal_dma.c ****   }
 1152              		.loc 1 588 5 is_stmt 1 view .LVU360
 1153 01d2 2368     		ldr	r3, [r4]
 1154 01d4 134A     		ldr	r2, .L112
 1155 01d6 9342     		cmp	r3, r2
 1156 01d8 14D0     		beq	.L96
 588:C:/Users/vovua/STM32Cube/Repository/STM32Cube_FW_F1_V1.8.4/Drivers/STM32F1xx_HAL_Driver/Src\stm32f1xx_hal_dma.c ****   }
 1157              		.loc 1 588 5 is_stmt 0 discriminator 1 view .LVU361
 1158 01da 1432     		adds	r2, r2, #20
 1159 01dc 9342     		cmp	r3, r2
 1160 01de 15D0     		beq	.L97
 588:C:/Users/vovua/STM32Cube/Repository/STM32Cube_FW_F1_V1.8.4/Drivers/STM32F1xx_HAL_Driver/Src\stm32f1xx_hal_dma.c ****   }
 1161              		.loc 1 588 5 discriminator 3 view .LVU362
 1162 01e0 1432     		adds	r2, r2, #20
 1163 01e2 9342     		cmp	r3, r2
 1164 01e4 14D0     		beq	.L98
 588:C:/Users/vovua/STM32Cube/Repository/STM32Cube_FW_F1_V1.8.4/Drivers/STM32F1xx_HAL_Driver/Src\stm32f1xx_hal_dma.c ****   }
 1165              		.loc 1 588 5 discriminator 5 view .LVU363
 1166 01e6 1432     		adds	r2, r2, #20
 1167 01e8 9342     		cmp	r3, r2
 1168 01ea 14D0     		beq	.L99
 588:C:/Users/vovua/STM32Cube/Repository/STM32Cube_FW_F1_V1.8.4/Drivers/STM32F1xx_HAL_Driver/Src\stm32f1xx_hal_dma.c ****   }
 1169              		.loc 1 588 5 discriminator 7 view .LVU364
 1170 01ec 1432     		adds	r2, r2, #20
 1171 01ee 9342     		cmp	r3, r2
 1172 01f0 14D0     		beq	.L100
 588:C:/Users/vovua/STM32Cube/Repository/STM32Cube_FW_F1_V1.8.4/Drivers/STM32F1xx_HAL_Driver/Src\stm32f1xx_hal_dma.c ****   }
 1173              		.loc 1 588 5 discriminator 9 view .LVU365
 1174 01f2 1432     		adds	r2, r2, #20
 1175 01f4 9342     		cmp	r3, r2
 1176 01f6 02D0     		beq	.L111
 588:C:/Users/vovua/STM32Cube/Repository/STM32Cube_FW_F1_V1.8.4/Drivers/STM32F1xx_HAL_Driver/Src\stm32f1xx_hal_dma.c ****   }
ARM GAS  C:\Users\vovua\AppData\Local\Temp\cc7FFceq.s 			page 43


 1177              		.loc 1 588 5 view .LVU366
 1178 01f8 4FF08062 		mov	r2, #67108864
 1179 01fc 03E0     		b	.L71
 1180              	.L111:
 1181 01fe 4FF48002 		mov	r2, #4194304
 1182 0202 00E0     		b	.L71
 1183              	.L96:
 1184 0204 0422     		movs	r2, #4
 1185              	.L71:
 588:C:/Users/vovua/STM32Cube/Repository/STM32Cube_FW_F1_V1.8.4/Drivers/STM32F1xx_HAL_Driver/Src\stm32f1xx_hal_dma.c ****   }
 1186              		.loc 1 588 5 discriminator 24 view .LVU367
 1187 0206 084B     		ldr	r3, .L112+4
 1188 0208 5A60     		str	r2, [r3, #4]
 1189 020a D3E7     		b	.L70
 1190              	.L97:
 588:C:/Users/vovua/STM32Cube/Repository/STM32Cube_FW_F1_V1.8.4/Drivers/STM32F1xx_HAL_Driver/Src\stm32f1xx_hal_dma.c ****   }
 1191              		.loc 1 588 5 view .LVU368
 1192 020c 4022     		movs	r2, #64
 1193 020e FAE7     		b	.L71
 1194              	.L98:
 1195 0210 4FF48062 		mov	r2, #1024
 1196 0214 F7E7     		b	.L71
 1197              	.L99:
 1198 0216 4FF48042 		mov	r2, #16384
 1199 021a F4E7     		b	.L71
 1200              	.L100:
 1201 021c 4FF48022 		mov	r2, #262144
 1202 0220 F1E7     		b	.L71
 1203              	.L113:
 1204 0222 00BF     		.align	2
 1205              	.L112:
 1206 0224 08000240 		.word	1073872904
 1207 0228 00000240 		.word	1073872896
 1208              		.cfi_endproc
 1209              	.LFE71:
 1211              		.section	.text.HAL_DMA_IRQHandler,"ax",%progbits
 1212              		.align	1
 1213              		.global	HAL_DMA_IRQHandler
 1214              		.syntax unified
 1215              		.thumb
 1216              		.thumb_func
 1218              	HAL_DMA_IRQHandler:
 1219              	.LVL62:
 1220              	.LFB72:
 604:C:/Users/vovua/STM32Cube/Repository/STM32Cube_FW_F1_V1.8.4/Drivers/STM32F1xx_HAL_Driver/Src\stm32f1xx_hal_dma.c ****   uint32_t flag_it = hdma->DmaBaseAddress->ISR;
 1221              		.loc 1 604 1 is_stmt 1 view -0
 1222              		.cfi_startproc
 1223              		@ args = 0, pretend = 0, frame = 0
 1224              		@ frame_needed = 0, uses_anonymous_args = 0
 604:C:/Users/vovua/STM32Cube/Repository/STM32Cube_FW_F1_V1.8.4/Drivers/STM32F1xx_HAL_Driver/Src\stm32f1xx_hal_dma.c ****   uint32_t flag_it = hdma->DmaBaseAddress->ISR;
 1225              		.loc 1 604 1 is_stmt 0 view .LVU370
 1226 0000 38B5     		push	{r3, r4, r5, lr}
 1227              	.LCFI11:
 1228              		.cfi_def_cfa_offset 16
 1229              		.cfi_offset 3, -16
 1230              		.cfi_offset 4, -12
 1231              		.cfi_offset 5, -8
ARM GAS  C:\Users\vovua\AppData\Local\Temp\cc7FFceq.s 			page 44


 1232              		.cfi_offset 14, -4
 605:C:/Users/vovua/STM32Cube/Repository/STM32Cube_FW_F1_V1.8.4/Drivers/STM32F1xx_HAL_Driver/Src\stm32f1xx_hal_dma.c ****   uint32_t source_it = hdma->Instance->CCR;
 1233              		.loc 1 605 3 is_stmt 1 view .LVU371
 605:C:/Users/vovua/STM32Cube/Repository/STM32Cube_FW_F1_V1.8.4/Drivers/STM32F1xx_HAL_Driver/Src\stm32f1xx_hal_dma.c ****   uint32_t source_it = hdma->Instance->CCR;
 1234              		.loc 1 605 26 is_stmt 0 view .LVU372
 1235 0002 C36B     		ldr	r3, [r0, #60]
 605:C:/Users/vovua/STM32Cube/Repository/STM32Cube_FW_F1_V1.8.4/Drivers/STM32F1xx_HAL_Driver/Src\stm32f1xx_hal_dma.c ****   uint32_t source_it = hdma->Instance->CCR;
 1236              		.loc 1 605 12 view .LVU373
 1237 0004 1A68     		ldr	r2, [r3]
 1238              	.LVL63:
 606:C:/Users/vovua/STM32Cube/Repository/STM32Cube_FW_F1_V1.8.4/Drivers/STM32F1xx_HAL_Driver/Src\stm32f1xx_hal_dma.c ****   
 1239              		.loc 1 606 3 is_stmt 1 view .LVU374
 606:C:/Users/vovua/STM32Cube/Repository/STM32Cube_FW_F1_V1.8.4/Drivers/STM32F1xx_HAL_Driver/Src\stm32f1xx_hal_dma.c ****   
 1240              		.loc 1 606 28 is_stmt 0 view .LVU375
 1241 0006 0468     		ldr	r4, [r0]
 606:C:/Users/vovua/STM32Cube/Repository/STM32Cube_FW_F1_V1.8.4/Drivers/STM32F1xx_HAL_Driver/Src\stm32f1xx_hal_dma.c ****   
 1242              		.loc 1 606 12 view .LVU376
 1243 0008 2568     		ldr	r5, [r4]
 1244              	.LVL64:
 609:C:/Users/vovua/STM32Cube/Repository/STM32Cube_FW_F1_V1.8.4/Drivers/STM32F1xx_HAL_Driver/Src\stm32f1xx_hal_dma.c ****   {
 1245              		.loc 1 609 3 is_stmt 1 view .LVU377
 609:C:/Users/vovua/STM32Cube/Repository/STM32Cube_FW_F1_V1.8.4/Drivers/STM32F1xx_HAL_Driver/Src\stm32f1xx_hal_dma.c ****   {
 1246              		.loc 1 609 40 is_stmt 0 view .LVU378
 1247 000a 016C     		ldr	r1, [r0, #64]
 609:C:/Users/vovua/STM32Cube/Repository/STM32Cube_FW_F1_V1.8.4/Drivers/STM32F1xx_HAL_Driver/Src\stm32f1xx_hal_dma.c ****   {
 1248              		.loc 1 609 33 view .LVU379
 1249 000c 0423     		movs	r3, #4
 1250 000e 8B40     		lsls	r3, r3, r1
 609:C:/Users/vovua/STM32Cube/Repository/STM32Cube_FW_F1_V1.8.4/Drivers/STM32F1xx_HAL_Driver/Src\stm32f1xx_hal_dma.c ****   {
 1251              		.loc 1 609 6 view .LVU380
 1252 0010 1342     		tst	r3, r2
 1253 0012 35D0     		beq	.L115
 609:C:/Users/vovua/STM32Cube/Repository/STM32Cube_FW_F1_V1.8.4/Drivers/STM32F1xx_HAL_Driver/Src\stm32f1xx_hal_dma.c ****   {
 1254              		.loc 1 609 67 discriminator 1 view .LVU381
 1255 0014 15F0040F 		tst	r5, #4
 1256 0018 32D0     		beq	.L115
 612:C:/Users/vovua/STM32Cube/Repository/STM32Cube_FW_F1_V1.8.4/Drivers/STM32F1xx_HAL_Driver/Src\stm32f1xx_hal_dma.c ****     {
 1257              		.loc 1 612 5 is_stmt 1 view .LVU382
 612:C:/Users/vovua/STM32Cube/Repository/STM32Cube_FW_F1_V1.8.4/Drivers/STM32F1xx_HAL_Driver/Src\stm32f1xx_hal_dma.c ****     {
 1258              		.loc 1 612 23 is_stmt 0 view .LVU383
 1259 001a 2368     		ldr	r3, [r4]
 612:C:/Users/vovua/STM32Cube/Repository/STM32Cube_FW_F1_V1.8.4/Drivers/STM32F1xx_HAL_Driver/Src\stm32f1xx_hal_dma.c ****     {
 1260              		.loc 1 612 7 view .LVU384
 1261 001c 13F0200F 		tst	r3, #32
 1262 0020 03D1     		bne	.L116
 615:C:/Users/vovua/STM32Cube/Repository/STM32Cube_FW_F1_V1.8.4/Drivers/STM32F1xx_HAL_Driver/Src\stm32f1xx_hal_dma.c ****     }
 1263              		.loc 1 615 7 is_stmt 1 view .LVU385
 1264 0022 2368     		ldr	r3, [r4]
 1265 0024 23F00403 		bic	r3, r3, #4
 1266 0028 2360     		str	r3, [r4]
 1267              	.L116:
 618:C:/Users/vovua/STM32Cube/Repository/STM32Cube_FW_F1_V1.8.4/Drivers/STM32F1xx_HAL_Driver/Src\stm32f1xx_hal_dma.c **** 
 1268              		.loc 1 618 5 view .LVU386
 1269 002a 0368     		ldr	r3, [r0]
 1270 002c 434A     		ldr	r2, .L137
 1271              	.LVL65:
 618:C:/Users/vovua/STM32Cube/Repository/STM32Cube_FW_F1_V1.8.4/Drivers/STM32F1xx_HAL_Driver/Src\stm32f1xx_hal_dma.c **** 
ARM GAS  C:\Users\vovua\AppData\Local\Temp\cc7FFceq.s 			page 45


 1272              		.loc 1 618 5 is_stmt 0 view .LVU387
 1273 002e 9342     		cmp	r3, r2
 1274 0030 14D0     		beq	.L122
 618:C:/Users/vovua/STM32Cube/Repository/STM32Cube_FW_F1_V1.8.4/Drivers/STM32F1xx_HAL_Driver/Src\stm32f1xx_hal_dma.c **** 
 1275              		.loc 1 618 5 discriminator 1 view .LVU388
 1276 0032 1432     		adds	r2, r2, #20
 1277 0034 9342     		cmp	r3, r2
 1278 0036 18D0     		beq	.L123
 618:C:/Users/vovua/STM32Cube/Repository/STM32Cube_FW_F1_V1.8.4/Drivers/STM32F1xx_HAL_Driver/Src\stm32f1xx_hal_dma.c **** 
 1279              		.loc 1 618 5 discriminator 3 view .LVU389
 1280 0038 1432     		adds	r2, r2, #20
 1281 003a 9342     		cmp	r3, r2
 1282 003c 17D0     		beq	.L124
 618:C:/Users/vovua/STM32Cube/Repository/STM32Cube_FW_F1_V1.8.4/Drivers/STM32F1xx_HAL_Driver/Src\stm32f1xx_hal_dma.c **** 
 1283              		.loc 1 618 5 discriminator 5 view .LVU390
 1284 003e 1432     		adds	r2, r2, #20
 1285 0040 9342     		cmp	r3, r2
 1286 0042 17D0     		beq	.L125
 618:C:/Users/vovua/STM32Cube/Repository/STM32Cube_FW_F1_V1.8.4/Drivers/STM32F1xx_HAL_Driver/Src\stm32f1xx_hal_dma.c **** 
 1287              		.loc 1 618 5 discriminator 7 view .LVU391
 1288 0044 1432     		adds	r2, r2, #20
 1289 0046 9342     		cmp	r3, r2
 1290 0048 17D0     		beq	.L126
 618:C:/Users/vovua/STM32Cube/Repository/STM32Cube_FW_F1_V1.8.4/Drivers/STM32F1xx_HAL_Driver/Src\stm32f1xx_hal_dma.c **** 
 1291              		.loc 1 618 5 discriminator 9 view .LVU392
 1292 004a 1432     		adds	r2, r2, #20
 1293 004c 9342     		cmp	r3, r2
 1294 004e 02D0     		beq	.L135
 618:C:/Users/vovua/STM32Cube/Repository/STM32Cube_FW_F1_V1.8.4/Drivers/STM32F1xx_HAL_Driver/Src\stm32f1xx_hal_dma.c **** 
 1295              		.loc 1 618 5 view .LVU393
 1296 0050 4FF08062 		mov	r2, #67108864
 1297 0054 03E0     		b	.L117
 1298              	.L135:
 1299 0056 4FF48002 		mov	r2, #4194304
 1300 005a 00E0     		b	.L117
 1301              	.L122:
 1302 005c 0422     		movs	r2, #4
 1303              	.L117:
 618:C:/Users/vovua/STM32Cube/Repository/STM32Cube_FW_F1_V1.8.4/Drivers/STM32F1xx_HAL_Driver/Src\stm32f1xx_hal_dma.c **** 
 1304              		.loc 1 618 5 discriminator 24 view .LVU394
 1305 005e 384B     		ldr	r3, .L137+4
 1306 0060 5A60     		str	r2, [r3, #4]
 623:C:/Users/vovua/STM32Cube/Repository/STM32Cube_FW_F1_V1.8.4/Drivers/STM32F1xx_HAL_Driver/Src\stm32f1xx_hal_dma.c ****     {
 1307              		.loc 1 623 5 is_stmt 1 discriminator 24 view .LVU395
 623:C:/Users/vovua/STM32Cube/Repository/STM32Cube_FW_F1_V1.8.4/Drivers/STM32F1xx_HAL_Driver/Src\stm32f1xx_hal_dma.c ****     {
 1308              		.loc 1 623 12 is_stmt 0 discriminator 24 view .LVU396
 1309 0062 C36A     		ldr	r3, [r0, #44]
 623:C:/Users/vovua/STM32Cube/Repository/STM32Cube_FW_F1_V1.8.4/Drivers/STM32F1xx_HAL_Driver/Src\stm32f1xx_hal_dma.c ****     {
 1310              		.loc 1 623 7 discriminator 24 view .LVU397
 1311 0064 03B1     		cbz	r3, .L114
 626:C:/Users/vovua/STM32Cube/Repository/STM32Cube_FW_F1_V1.8.4/Drivers/STM32F1xx_HAL_Driver/Src\stm32f1xx_hal_dma.c ****     }
 1312              		.loc 1 626 7 is_stmt 1 view .LVU398
 1313 0066 9847     		blx	r3
 1314              	.LVL66:
 1315              	.L114:
 681:C:/Users/vovua/STM32Cube/Repository/STM32Cube_FW_F1_V1.8.4/Drivers/STM32F1xx_HAL_Driver/Src\stm32f1xx_hal_dma.c **** 
 1316              		.loc 1 681 1 is_stmt 0 view .LVU399
ARM GAS  C:\Users\vovua\AppData\Local\Temp\cc7FFceq.s 			page 46


 1317 0068 38BD     		pop	{r3, r4, r5, pc}
 1318              	.LVL67:
 1319              	.L123:
 618:C:/Users/vovua/STM32Cube/Repository/STM32Cube_FW_F1_V1.8.4/Drivers/STM32F1xx_HAL_Driver/Src\stm32f1xx_hal_dma.c **** 
 1320              		.loc 1 618 5 view .LVU400
 1321 006a 4022     		movs	r2, #64
 1322 006c F7E7     		b	.L117
 1323              	.L124:
 1324 006e 4FF48062 		mov	r2, #1024
 1325 0072 F4E7     		b	.L117
 1326              	.L125:
 1327 0074 4FF48042 		mov	r2, #16384
 1328 0078 F1E7     		b	.L117
 1329              	.L126:
 1330 007a 4FF48022 		mov	r2, #262144
 1331 007e EEE7     		b	.L117
 1332              	.LVL68:
 1333              	.L115:
 631:C:/Users/vovua/STM32Cube/Repository/STM32Cube_FW_F1_V1.8.4/Drivers/STM32F1xx_HAL_Driver/Src\stm32f1xx_hal_dma.c ****   {
 1334              		.loc 1 631 8 is_stmt 1 view .LVU401
 631:C:/Users/vovua/STM32Cube/Repository/STM32Cube_FW_F1_V1.8.4/Drivers/STM32F1xx_HAL_Driver/Src\stm32f1xx_hal_dma.c ****   {
 1335              		.loc 1 631 38 is_stmt 0 view .LVU402
 1336 0080 0223     		movs	r3, #2
 1337 0082 8B40     		lsls	r3, r3, r1
 631:C:/Users/vovua/STM32Cube/Repository/STM32Cube_FW_F1_V1.8.4/Drivers/STM32F1xx_HAL_Driver/Src\stm32f1xx_hal_dma.c ****   {
 1338              		.loc 1 631 11 view .LVU403
 1339 0084 1342     		tst	r3, r2
 1340 0086 3CD0     		beq	.L119
 631:C:/Users/vovua/STM32Cube/Repository/STM32Cube_FW_F1_V1.8.4/Drivers/STM32F1xx_HAL_Driver/Src\stm32f1xx_hal_dma.c ****   {
 1341              		.loc 1 631 72 discriminator 1 view .LVU404
 1342 0088 15F0020F 		tst	r5, #2
 1343 008c 39D0     		beq	.L119
 633:C:/Users/vovua/STM32Cube/Repository/STM32Cube_FW_F1_V1.8.4/Drivers/STM32F1xx_HAL_Driver/Src\stm32f1xx_hal_dma.c ****     {
 1344              		.loc 1 633 5 is_stmt 1 view .LVU405
 633:C:/Users/vovua/STM32Cube/Repository/STM32Cube_FW_F1_V1.8.4/Drivers/STM32F1xx_HAL_Driver/Src\stm32f1xx_hal_dma.c ****     {
 1345              		.loc 1 633 23 is_stmt 0 view .LVU406
 1346 008e 2368     		ldr	r3, [r4]
 633:C:/Users/vovua/STM32Cube/Repository/STM32Cube_FW_F1_V1.8.4/Drivers/STM32F1xx_HAL_Driver/Src\stm32f1xx_hal_dma.c ****     {
 1347              		.loc 1 633 7 view .LVU407
 1348 0090 13F0200F 		tst	r3, #32
 1349 0094 06D1     		bne	.L120
 636:C:/Users/vovua/STM32Cube/Repository/STM32Cube_FW_F1_V1.8.4/Drivers/STM32F1xx_HAL_Driver/Src\stm32f1xx_hal_dma.c **** 
 1350              		.loc 1 636 7 is_stmt 1 view .LVU408
 1351 0096 2368     		ldr	r3, [r4]
 1352 0098 23F00A03 		bic	r3, r3, #10
 1353 009c 2360     		str	r3, [r4]
 639:C:/Users/vovua/STM32Cube/Repository/STM32Cube_FW_F1_V1.8.4/Drivers/STM32F1xx_HAL_Driver/Src\stm32f1xx_hal_dma.c ****     }
 1354              		.loc 1 639 7 view .LVU409
 639:C:/Users/vovua/STM32Cube/Repository/STM32Cube_FW_F1_V1.8.4/Drivers/STM32F1xx_HAL_Driver/Src\stm32f1xx_hal_dma.c ****     }
 1355              		.loc 1 639 19 is_stmt 0 view .LVU410
 1356 009e 0123     		movs	r3, #1
 1357 00a0 80F82130 		strb	r3, [r0, #33]
 1358              	.L120:
 642:C:/Users/vovua/STM32Cube/Repository/STM32Cube_FW_F1_V1.8.4/Drivers/STM32F1xx_HAL_Driver/Src\stm32f1xx_hal_dma.c **** 
 1359              		.loc 1 642 7 is_stmt 1 view .LVU411
 1360 00a4 0368     		ldr	r3, [r0]
 1361 00a6 254A     		ldr	r2, .L137
ARM GAS  C:\Users\vovua\AppData\Local\Temp\cc7FFceq.s 			page 47


 1362              	.LVL69:
 642:C:/Users/vovua/STM32Cube/Repository/STM32Cube_FW_F1_V1.8.4/Drivers/STM32F1xx_HAL_Driver/Src\stm32f1xx_hal_dma.c **** 
 1363              		.loc 1 642 7 is_stmt 0 view .LVU412
 1364 00a8 9342     		cmp	r3, r2
 1365 00aa 14D0     		beq	.L128
 642:C:/Users/vovua/STM32Cube/Repository/STM32Cube_FW_F1_V1.8.4/Drivers/STM32F1xx_HAL_Driver/Src\stm32f1xx_hal_dma.c **** 
 1366              		.loc 1 642 7 discriminator 1 view .LVU413
 1367 00ac 1432     		adds	r2, r2, #20
 1368 00ae 9342     		cmp	r3, r2
 1369 00b0 1CD0     		beq	.L129
 642:C:/Users/vovua/STM32Cube/Repository/STM32Cube_FW_F1_V1.8.4/Drivers/STM32F1xx_HAL_Driver/Src\stm32f1xx_hal_dma.c **** 
 1370              		.loc 1 642 7 discriminator 3 view .LVU414
 1371 00b2 1432     		adds	r2, r2, #20
 1372 00b4 9342     		cmp	r3, r2
 1373 00b6 1BD0     		beq	.L130
 642:C:/Users/vovua/STM32Cube/Repository/STM32Cube_FW_F1_V1.8.4/Drivers/STM32F1xx_HAL_Driver/Src\stm32f1xx_hal_dma.c **** 
 1374              		.loc 1 642 7 discriminator 5 view .LVU415
 1375 00b8 1432     		adds	r2, r2, #20
 1376 00ba 9342     		cmp	r3, r2
 1377 00bc 1BD0     		beq	.L131
 642:C:/Users/vovua/STM32Cube/Repository/STM32Cube_FW_F1_V1.8.4/Drivers/STM32F1xx_HAL_Driver/Src\stm32f1xx_hal_dma.c **** 
 1378              		.loc 1 642 7 discriminator 7 view .LVU416
 1379 00be 1432     		adds	r2, r2, #20
 1380 00c0 9342     		cmp	r3, r2
 1381 00c2 1BD0     		beq	.L132
 642:C:/Users/vovua/STM32Cube/Repository/STM32Cube_FW_F1_V1.8.4/Drivers/STM32F1xx_HAL_Driver/Src\stm32f1xx_hal_dma.c **** 
 1382              		.loc 1 642 7 discriminator 9 view .LVU417
 1383 00c4 1432     		adds	r2, r2, #20
 1384 00c6 9342     		cmp	r3, r2
 1385 00c8 02D0     		beq	.L136
 642:C:/Users/vovua/STM32Cube/Repository/STM32Cube_FW_F1_V1.8.4/Drivers/STM32F1xx_HAL_Driver/Src\stm32f1xx_hal_dma.c **** 
 1386              		.loc 1 642 7 view .LVU418
 1387 00ca 4FF00072 		mov	r2, #33554432
 1388 00ce 03E0     		b	.L121
 1389              	.L136:
 1390 00d0 4FF40012 		mov	r2, #2097152
 1391 00d4 00E0     		b	.L121
 1392              	.L128:
 1393 00d6 0222     		movs	r2, #2
 1394              	.L121:
 642:C:/Users/vovua/STM32Cube/Repository/STM32Cube_FW_F1_V1.8.4/Drivers/STM32F1xx_HAL_Driver/Src\stm32f1xx_hal_dma.c **** 
 1395              		.loc 1 642 7 discriminator 24 view .LVU419
 1396 00d8 194B     		ldr	r3, .L137+4
 1397 00da 5A60     		str	r2, [r3, #4]
 645:C:/Users/vovua/STM32Cube/Repository/STM32Cube_FW_F1_V1.8.4/Drivers/STM32F1xx_HAL_Driver/Src\stm32f1xx_hal_dma.c **** 
 1398              		.loc 1 645 5 is_stmt 1 discriminator 24 view .LVU420
 645:C:/Users/vovua/STM32Cube/Repository/STM32Cube_FW_F1_V1.8.4/Drivers/STM32F1xx_HAL_Driver/Src\stm32f1xx_hal_dma.c **** 
 1399              		.loc 1 645 5 discriminator 24 view .LVU421
 1400 00dc 0023     		movs	r3, #0
 1401 00de 80F82030 		strb	r3, [r0, #32]
 645:C:/Users/vovua/STM32Cube/Repository/STM32Cube_FW_F1_V1.8.4/Drivers/STM32F1xx_HAL_Driver/Src\stm32f1xx_hal_dma.c **** 
 1402              		.loc 1 645 5 discriminator 24 view .LVU422
 647:C:/Users/vovua/STM32Cube/Repository/STM32Cube_FW_F1_V1.8.4/Drivers/STM32F1xx_HAL_Driver/Src\stm32f1xx_hal_dma.c ****     {
 1403              		.loc 1 647 5 discriminator 24 view .LVU423
 647:C:/Users/vovua/STM32Cube/Repository/STM32Cube_FW_F1_V1.8.4/Drivers/STM32F1xx_HAL_Driver/Src\stm32f1xx_hal_dma.c ****     {
 1404              		.loc 1 647 12 is_stmt 0 discriminator 24 view .LVU424
 1405 00e2 836A     		ldr	r3, [r0, #40]
ARM GAS  C:\Users\vovua\AppData\Local\Temp\cc7FFceq.s 			page 48


 647:C:/Users/vovua/STM32Cube/Repository/STM32Cube_FW_F1_V1.8.4/Drivers/STM32F1xx_HAL_Driver/Src\stm32f1xx_hal_dma.c ****     {
 1406              		.loc 1 647 7 discriminator 24 view .LVU425
 1407 00e4 002B     		cmp	r3, #0
 1408 00e6 BFD0     		beq	.L114
 650:C:/Users/vovua/STM32Cube/Repository/STM32Cube_FW_F1_V1.8.4/Drivers/STM32F1xx_HAL_Driver/Src\stm32f1xx_hal_dma.c ****     }
 1409              		.loc 1 650 7 is_stmt 1 view .LVU426
 1410 00e8 9847     		blx	r3
 1411              	.LVL70:
 650:C:/Users/vovua/STM32Cube/Repository/STM32Cube_FW_F1_V1.8.4/Drivers/STM32F1xx_HAL_Driver/Src\stm32f1xx_hal_dma.c ****     }
 1412              		.loc 1 650 7 is_stmt 0 view .LVU427
 1413 00ea BDE7     		b	.L114
 1414              	.LVL71:
 1415              	.L129:
 642:C:/Users/vovua/STM32Cube/Repository/STM32Cube_FW_F1_V1.8.4/Drivers/STM32F1xx_HAL_Driver/Src\stm32f1xx_hal_dma.c **** 
 1416              		.loc 1 642 7 view .LVU428
 1417 00ec 2022     		movs	r2, #32
 1418 00ee F3E7     		b	.L121
 1419              	.L130:
 1420 00f0 4FF40072 		mov	r2, #512
 1421 00f4 F0E7     		b	.L121
 1422              	.L131:
 1423 00f6 4FF40052 		mov	r2, #8192
 1424 00fa EDE7     		b	.L121
 1425              	.L132:
 1426 00fc 4FF40032 		mov	r2, #131072
 1427 0100 EAE7     		b	.L121
 1428              	.LVL72:
 1429              	.L119:
 655:C:/Users/vovua/STM32Cube/Repository/STM32Cube_FW_F1_V1.8.4/Drivers/STM32F1xx_HAL_Driver/Src\stm32f1xx_hal_dma.c ****   {
 1430              		.loc 1 655 8 is_stmt 1 view .LVU429
 655:C:/Users/vovua/STM32Cube/Repository/STM32Cube_FW_F1_V1.8.4/Drivers/STM32F1xx_HAL_Driver/Src\stm32f1xx_hal_dma.c ****   {
 1431              		.loc 1 655 48 is_stmt 0 view .LVU430
 1432 0102 0823     		movs	r3, #8
 1433 0104 8B40     		lsls	r3, r3, r1
 655:C:/Users/vovua/STM32Cube/Repository/STM32Cube_FW_F1_V1.8.4/Drivers/STM32F1xx_HAL_Driver/Src\stm32f1xx_hal_dma.c ****   {
 1434              		.loc 1 655 11 view .LVU431
 1435 0106 1342     		tst	r3, r2
 1436 0108 AED0     		beq	.L114
 655:C:/Users/vovua/STM32Cube/Repository/STM32Cube_FW_F1_V1.8.4/Drivers/STM32F1xx_HAL_Driver/Src\stm32f1xx_hal_dma.c ****   {
 1437              		.loc 1 655 73 discriminator 1 view .LVU432
 1438 010a 15F0080F 		tst	r5, #8
 1439 010e ABD0     		beq	.L114
 660:C:/Users/vovua/STM32Cube/Repository/STM32Cube_FW_F1_V1.8.4/Drivers/STM32F1xx_HAL_Driver/Src\stm32f1xx_hal_dma.c **** 
 1440              		.loc 1 660 5 is_stmt 1 view .LVU433
 1441 0110 2368     		ldr	r3, [r4]
 1442 0112 23F00E03 		bic	r3, r3, #14
 1443 0116 2360     		str	r3, [r4]
 663:C:/Users/vovua/STM32Cube/Repository/STM32Cube_FW_F1_V1.8.4/Drivers/STM32F1xx_HAL_Driver/Src\stm32f1xx_hal_dma.c **** 
 1444              		.loc 1 663 5 view .LVU434
 663:C:/Users/vovua/STM32Cube/Repository/STM32Cube_FW_F1_V1.8.4/Drivers/STM32F1xx_HAL_Driver/Src\stm32f1xx_hal_dma.c **** 
 1445              		.loc 1 663 55 is_stmt 0 view .LVU435
 1446 0118 026C     		ldr	r2, [r0, #64]
 1447              	.LVL73:
 663:C:/Users/vovua/STM32Cube/Repository/STM32Cube_FW_F1_V1.8.4/Drivers/STM32F1xx_HAL_Driver/Src\stm32f1xx_hal_dma.c **** 
 1448              		.loc 1 663 9 view .LVU436
 1449 011a C16B     		ldr	r1, [r0, #60]
 663:C:/Users/vovua/STM32Cube/Repository/STM32Cube_FW_F1_V1.8.4/Drivers/STM32F1xx_HAL_Driver/Src\stm32f1xx_hal_dma.c **** 
ARM GAS  C:\Users\vovua\AppData\Local\Temp\cc7FFceq.s 			page 49


 1450              		.loc 1 663 48 view .LVU437
 1451 011c 0123     		movs	r3, #1
 1452 011e 03FA02F2 		lsl	r2, r3, r2
 663:C:/Users/vovua/STM32Cube/Repository/STM32Cube_FW_F1_V1.8.4/Drivers/STM32F1xx_HAL_Driver/Src\stm32f1xx_hal_dma.c **** 
 1453              		.loc 1 663 32 view .LVU438
 1454 0122 4A60     		str	r2, [r1, #4]
 666:C:/Users/vovua/STM32Cube/Repository/STM32Cube_FW_F1_V1.8.4/Drivers/STM32F1xx_HAL_Driver/Src\stm32f1xx_hal_dma.c **** 
 1455              		.loc 1 666 5 is_stmt 1 view .LVU439
 666:C:/Users/vovua/STM32Cube/Repository/STM32Cube_FW_F1_V1.8.4/Drivers/STM32F1xx_HAL_Driver/Src\stm32f1xx_hal_dma.c **** 
 1456              		.loc 1 666 21 is_stmt 0 view .LVU440
 1457 0124 8363     		str	r3, [r0, #56]
 669:C:/Users/vovua/STM32Cube/Repository/STM32Cube_FW_F1_V1.8.4/Drivers/STM32F1xx_HAL_Driver/Src\stm32f1xx_hal_dma.c **** 
 1458              		.loc 1 669 5 is_stmt 1 view .LVU441
 669:C:/Users/vovua/STM32Cube/Repository/STM32Cube_FW_F1_V1.8.4/Drivers/STM32F1xx_HAL_Driver/Src\stm32f1xx_hal_dma.c **** 
 1459              		.loc 1 669 17 is_stmt 0 view .LVU442
 1460 0126 80F82130 		strb	r3, [r0, #33]
 672:C:/Users/vovua/STM32Cube/Repository/STM32Cube_FW_F1_V1.8.4/Drivers/STM32F1xx_HAL_Driver/Src\stm32f1xx_hal_dma.c **** 
 1461              		.loc 1 672 5 is_stmt 1 view .LVU443
 672:C:/Users/vovua/STM32Cube/Repository/STM32Cube_FW_F1_V1.8.4/Drivers/STM32F1xx_HAL_Driver/Src\stm32f1xx_hal_dma.c **** 
 1462              		.loc 1 672 5 view .LVU444
 1463 012a 0023     		movs	r3, #0
 1464 012c 80F82030 		strb	r3, [r0, #32]
 672:C:/Users/vovua/STM32Cube/Repository/STM32Cube_FW_F1_V1.8.4/Drivers/STM32F1xx_HAL_Driver/Src\stm32f1xx_hal_dma.c **** 
 1465              		.loc 1 672 5 view .LVU445
 674:C:/Users/vovua/STM32Cube/Repository/STM32Cube_FW_F1_V1.8.4/Drivers/STM32F1xx_HAL_Driver/Src\stm32f1xx_hal_dma.c ****     {
 1466              		.loc 1 674 5 view .LVU446
 674:C:/Users/vovua/STM32Cube/Repository/STM32Cube_FW_F1_V1.8.4/Drivers/STM32F1xx_HAL_Driver/Src\stm32f1xx_hal_dma.c ****     {
 1467              		.loc 1 674 13 is_stmt 0 view .LVU447
 1468 0130 036B     		ldr	r3, [r0, #48]
 674:C:/Users/vovua/STM32Cube/Repository/STM32Cube_FW_F1_V1.8.4/Drivers/STM32F1xx_HAL_Driver/Src\stm32f1xx_hal_dma.c ****     {
 1469              		.loc 1 674 8 view .LVU448
 1470 0132 002B     		cmp	r3, #0
 1471 0134 98D0     		beq	.L114
 677:C:/Users/vovua/STM32Cube/Repository/STM32Cube_FW_F1_V1.8.4/Drivers/STM32F1xx_HAL_Driver/Src\stm32f1xx_hal_dma.c ****     }
 1472              		.loc 1 677 7 is_stmt 1 view .LVU449
 1473 0136 9847     		blx	r3
 1474              	.LVL74:
 680:C:/Users/vovua/STM32Cube/Repository/STM32Cube_FW_F1_V1.8.4/Drivers/STM32F1xx_HAL_Driver/Src\stm32f1xx_hal_dma.c **** }
 1475              		.loc 1 680 3 view .LVU450
 1476 0138 96E7     		b	.L114
 1477              	.L138:
 1478 013a 00BF     		.align	2
 1479              	.L137:
 1480 013c 08000240 		.word	1073872904
 1481 0140 00000240 		.word	1073872896
 1482              		.cfi_endproc
 1483              	.LFE72:
 1485              		.section	.text.HAL_DMA_RegisterCallback,"ax",%progbits
 1486              		.align	1
 1487              		.global	HAL_DMA_RegisterCallback
 1488              		.syntax unified
 1489              		.thumb
 1490              		.thumb_func
 1492              	HAL_DMA_RegisterCallback:
 1493              	.LVL75:
 1494              	.LFB73:
 694:C:/Users/vovua/STM32Cube/Repository/STM32Cube_FW_F1_V1.8.4/Drivers/STM32F1xx_HAL_Driver/Src\stm32f1xx_hal_dma.c ****   HAL_StatusTypeDef status = HAL_OK;
ARM GAS  C:\Users\vovua\AppData\Local\Temp\cc7FFceq.s 			page 50


 1495              		.loc 1 694 1 view -0
 1496              		.cfi_startproc
 1497              		@ args = 0, pretend = 0, frame = 0
 1498              		@ frame_needed = 0, uses_anonymous_args = 0
 1499              		@ link register save eliminated.
 694:C:/Users/vovua/STM32Cube/Repository/STM32Cube_FW_F1_V1.8.4/Drivers/STM32F1xx_HAL_Driver/Src\stm32f1xx_hal_dma.c ****   HAL_StatusTypeDef status = HAL_OK;
 1500              		.loc 1 694 1 is_stmt 0 view .LVU452
 1501 0000 0346     		mov	r3, r0
 695:C:/Users/vovua/STM32Cube/Repository/STM32Cube_FW_F1_V1.8.4/Drivers/STM32F1xx_HAL_Driver/Src\stm32f1xx_hal_dma.c ****   
 1502              		.loc 1 695 3 is_stmt 1 view .LVU453
 1503              	.LVL76:
 698:C:/Users/vovua/STM32Cube/Repository/STM32Cube_FW_F1_V1.8.4/Drivers/STM32F1xx_HAL_Driver/Src\stm32f1xx_hal_dma.c ****   
 1504              		.loc 1 698 3 view .LVU454
 698:C:/Users/vovua/STM32Cube/Repository/STM32Cube_FW_F1_V1.8.4/Drivers/STM32F1xx_HAL_Driver/Src\stm32f1xx_hal_dma.c ****   
 1505              		.loc 1 698 3 view .LVU455
 1506 0002 90F82000 		ldrb	r0, [r0, #32]	@ zero_extendqisi2
 1507              	.LVL77:
 698:C:/Users/vovua/STM32Cube/Repository/STM32Cube_FW_F1_V1.8.4/Drivers/STM32F1xx_HAL_Driver/Src\stm32f1xx_hal_dma.c ****   
 1508              		.loc 1 698 3 is_stmt 0 view .LVU456
 1509 0006 0128     		cmp	r0, #1
 1510 0008 1DD0     		beq	.L147
 698:C:/Users/vovua/STM32Cube/Repository/STM32Cube_FW_F1_V1.8.4/Drivers/STM32F1xx_HAL_Driver/Src\stm32f1xx_hal_dma.c ****   
 1511              		.loc 1 698 3 is_stmt 1 discriminator 2 view .LVU457
 1512 000a 0120     		movs	r0, #1
 1513 000c 83F82000 		strb	r0, [r3, #32]
 698:C:/Users/vovua/STM32Cube/Repository/STM32Cube_FW_F1_V1.8.4/Drivers/STM32F1xx_HAL_Driver/Src\stm32f1xx_hal_dma.c ****   
 1514              		.loc 1 698 3 discriminator 2 view .LVU458
 700:C:/Users/vovua/STM32Cube/Repository/STM32Cube_FW_F1_V1.8.4/Drivers/STM32F1xx_HAL_Driver/Src\stm32f1xx_hal_dma.c ****   {
 1515              		.loc 1 700 3 discriminator 2 view .LVU459
 700:C:/Users/vovua/STM32Cube/Repository/STM32Cube_FW_F1_V1.8.4/Drivers/STM32F1xx_HAL_Driver/Src\stm32f1xx_hal_dma.c ****   {
 1516              		.loc 1 700 33 is_stmt 0 discriminator 2 view .LVU460
 1517 0010 93F82100 		ldrb	r0, [r3, #33]	@ zero_extendqisi2
 700:C:/Users/vovua/STM32Cube/Repository/STM32Cube_FW_F1_V1.8.4/Drivers/STM32F1xx_HAL_Driver/Src\stm32f1xx_hal_dma.c ****   {
 1518              		.loc 1 700 5 discriminator 2 view .LVU461
 1519 0014 0128     		cmp	r0, #1
 1520 0016 04D0     		beq	.L150
 727:C:/Users/vovua/STM32Cube/Repository/STM32Cube_FW_F1_V1.8.4/Drivers/STM32F1xx_HAL_Driver/Src\stm32f1xx_hal_dma.c ****   } 
 1521              		.loc 1 727 12 view .LVU462
 1522 0018 0120     		movs	r0, #1
 1523              	.L141:
 1524              	.LVL78:
 731:C:/Users/vovua/STM32Cube/Repository/STM32Cube_FW_F1_V1.8.4/Drivers/STM32F1xx_HAL_Driver/Src\stm32f1xx_hal_dma.c ****   
 1525              		.loc 1 731 3 is_stmt 1 view .LVU463
 731:C:/Users/vovua/STM32Cube/Repository/STM32Cube_FW_F1_V1.8.4/Drivers/STM32F1xx_HAL_Driver/Src\stm32f1xx_hal_dma.c ****   
 1526              		.loc 1 731 3 view .LVU464
 1527 001a 0022     		movs	r2, #0
 1528              	.LVL79:
 731:C:/Users/vovua/STM32Cube/Repository/STM32Cube_FW_F1_V1.8.4/Drivers/STM32F1xx_HAL_Driver/Src\stm32f1xx_hal_dma.c ****   
 1529              		.loc 1 731 3 is_stmt 0 view .LVU465
 1530 001c 83F82020 		strb	r2, [r3, #32]
 731:C:/Users/vovua/STM32Cube/Repository/STM32Cube_FW_F1_V1.8.4/Drivers/STM32F1xx_HAL_Driver/Src\stm32f1xx_hal_dma.c ****   
 1531              		.loc 1 731 3 is_stmt 1 view .LVU466
 733:C:/Users/vovua/STM32Cube/Repository/STM32Cube_FW_F1_V1.8.4/Drivers/STM32F1xx_HAL_Driver/Src\stm32f1xx_hal_dma.c **** }
 1532              		.loc 1 733 3 view .LVU467
 733:C:/Users/vovua/STM32Cube/Repository/STM32Cube_FW_F1_V1.8.4/Drivers/STM32F1xx_HAL_Driver/Src\stm32f1xx_hal_dma.c **** }
 1533              		.loc 1 733 10 is_stmt 0 view .LVU468
 1534 0020 7047     		bx	lr
ARM GAS  C:\Users\vovua\AppData\Local\Temp\cc7FFceq.s 			page 51


 1535              	.LVL80:
 1536              	.L150:
 702:C:/Users/vovua/STM32Cube/Repository/STM32Cube_FW_F1_V1.8.4/Drivers/STM32F1xx_HAL_Driver/Src\stm32f1xx_hal_dma.c ****     {
 1537              		.loc 1 702 5 is_stmt 1 view .LVU469
 1538 0022 0329     		cmp	r1, #3
 1539 0024 F9D8     		bhi	.L141
 1540 0026 DFE801F0 		tbb	[pc, r1]
 1541              	.L143:
 1542 002a 02       		.byte	(.L146-.L143)/2
 1543 002b 05       		.byte	(.L145-.L143)/2
 1544 002c 08       		.byte	(.L144-.L143)/2
 1545 002d 0B       		.byte	(.L142-.L143)/2
 1546              		.p2align 1
 1547              	.L146:
 705:C:/Users/vovua/STM32Cube/Repository/STM32Cube_FW_F1_V1.8.4/Drivers/STM32F1xx_HAL_Driver/Src\stm32f1xx_hal_dma.c ****       break;
 1548              		.loc 1 705 7 view .LVU470
 705:C:/Users/vovua/STM32Cube/Repository/STM32Cube_FW_F1_V1.8.4/Drivers/STM32F1xx_HAL_Driver/Src\stm32f1xx_hal_dma.c ****       break;
 1549              		.loc 1 705 30 is_stmt 0 view .LVU471
 1550 002e 9A62     		str	r2, [r3, #40]
 706:C:/Users/vovua/STM32Cube/Repository/STM32Cube_FW_F1_V1.8.4/Drivers/STM32F1xx_HAL_Driver/Src\stm32f1xx_hal_dma.c ****       
 1551              		.loc 1 706 7 is_stmt 1 view .LVU472
 695:C:/Users/vovua/STM32Cube/Repository/STM32Cube_FW_F1_V1.8.4/Drivers/STM32F1xx_HAL_Driver/Src\stm32f1xx_hal_dma.c ****   
 1552              		.loc 1 695 21 is_stmt 0 view .LVU473
 1553 0030 0846     		mov	r0, r1
 706:C:/Users/vovua/STM32Cube/Repository/STM32Cube_FW_F1_V1.8.4/Drivers/STM32F1xx_HAL_Driver/Src\stm32f1xx_hal_dma.c ****       
 1554              		.loc 1 706 7 view .LVU474
 1555 0032 F2E7     		b	.L141
 1556              	.L145:
 709:C:/Users/vovua/STM32Cube/Repository/STM32Cube_FW_F1_V1.8.4/Drivers/STM32F1xx_HAL_Driver/Src\stm32f1xx_hal_dma.c ****       break;         
 1557              		.loc 1 709 7 is_stmt 1 view .LVU475
 709:C:/Users/vovua/STM32Cube/Repository/STM32Cube_FW_F1_V1.8.4/Drivers/STM32F1xx_HAL_Driver/Src\stm32f1xx_hal_dma.c ****       break;         
 1558              		.loc 1 709 34 is_stmt 0 view .LVU476
 1559 0034 DA62     		str	r2, [r3, #44]
 710:C:/Users/vovua/STM32Cube/Repository/STM32Cube_FW_F1_V1.8.4/Drivers/STM32F1xx_HAL_Driver/Src\stm32f1xx_hal_dma.c **** 
 1560              		.loc 1 710 7 is_stmt 1 view .LVU477
 695:C:/Users/vovua/STM32Cube/Repository/STM32Cube_FW_F1_V1.8.4/Drivers/STM32F1xx_HAL_Driver/Src\stm32f1xx_hal_dma.c ****   
 1561              		.loc 1 695 21 is_stmt 0 view .LVU478
 1562 0036 0020     		movs	r0, #0
 710:C:/Users/vovua/STM32Cube/Repository/STM32Cube_FW_F1_V1.8.4/Drivers/STM32F1xx_HAL_Driver/Src\stm32f1xx_hal_dma.c **** 
 1563              		.loc 1 710 7 view .LVU479
 1564 0038 EFE7     		b	.L141
 1565              	.L144:
 713:C:/Users/vovua/STM32Cube/Repository/STM32Cube_FW_F1_V1.8.4/Drivers/STM32F1xx_HAL_Driver/Src\stm32f1xx_hal_dma.c ****       break;         
 1566              		.loc 1 713 7 is_stmt 1 view .LVU480
 713:C:/Users/vovua/STM32Cube/Repository/STM32Cube_FW_F1_V1.8.4/Drivers/STM32F1xx_HAL_Driver/Src\stm32f1xx_hal_dma.c ****       break;         
 1567              		.loc 1 713 31 is_stmt 0 view .LVU481
 1568 003a 1A63     		str	r2, [r3, #48]
 714:C:/Users/vovua/STM32Cube/Repository/STM32Cube_FW_F1_V1.8.4/Drivers/STM32F1xx_HAL_Driver/Src\stm32f1xx_hal_dma.c ****       
 1569              		.loc 1 714 7 is_stmt 1 view .LVU482
 695:C:/Users/vovua/STM32Cube/Repository/STM32Cube_FW_F1_V1.8.4/Drivers/STM32F1xx_HAL_Driver/Src\stm32f1xx_hal_dma.c ****   
 1570              		.loc 1 695 21 is_stmt 0 view .LVU483
 1571 003c 0020     		movs	r0, #0
 714:C:/Users/vovua/STM32Cube/Repository/STM32Cube_FW_F1_V1.8.4/Drivers/STM32F1xx_HAL_Driver/Src\stm32f1xx_hal_dma.c ****       
 1572              		.loc 1 714 7 view .LVU484
 1573 003e ECE7     		b	.L141
 1574              	.L142:
 717:C:/Users/vovua/STM32Cube/Repository/STM32Cube_FW_F1_V1.8.4/Drivers/STM32F1xx_HAL_Driver/Src\stm32f1xx_hal_dma.c ****       break; 
ARM GAS  C:\Users\vovua\AppData\Local\Temp\cc7FFceq.s 			page 52


 1575              		.loc 1 717 7 is_stmt 1 view .LVU485
 717:C:/Users/vovua/STM32Cube/Repository/STM32Cube_FW_F1_V1.8.4/Drivers/STM32F1xx_HAL_Driver/Src\stm32f1xx_hal_dma.c ****       break; 
 1576              		.loc 1 717 31 is_stmt 0 view .LVU486
 1577 0040 5A63     		str	r2, [r3, #52]
 718:C:/Users/vovua/STM32Cube/Repository/STM32Cube_FW_F1_V1.8.4/Drivers/STM32F1xx_HAL_Driver/Src\stm32f1xx_hal_dma.c ****       
 1578              		.loc 1 718 7 is_stmt 1 view .LVU487
 695:C:/Users/vovua/STM32Cube/Repository/STM32Cube_FW_F1_V1.8.4/Drivers/STM32F1xx_HAL_Driver/Src\stm32f1xx_hal_dma.c ****   
 1579              		.loc 1 695 21 is_stmt 0 view .LVU488
 1580 0042 0020     		movs	r0, #0
 718:C:/Users/vovua/STM32Cube/Repository/STM32Cube_FW_F1_V1.8.4/Drivers/STM32F1xx_HAL_Driver/Src\stm32f1xx_hal_dma.c ****       
 1581              		.loc 1 718 7 view .LVU489
 1582 0044 E9E7     		b	.L141
 1583              	.L147:
 698:C:/Users/vovua/STM32Cube/Repository/STM32Cube_FW_F1_V1.8.4/Drivers/STM32F1xx_HAL_Driver/Src\stm32f1xx_hal_dma.c ****   
 1584              		.loc 1 698 3 view .LVU490
 1585 0046 0220     		movs	r0, #2
 734:C:/Users/vovua/STM32Cube/Repository/STM32Cube_FW_F1_V1.8.4/Drivers/STM32F1xx_HAL_Driver/Src\stm32f1xx_hal_dma.c **** 
 1586              		.loc 1 734 1 view .LVU491
 1587 0048 7047     		bx	lr
 1588              		.cfi_endproc
 1589              	.LFE73:
 1591              		.section	.text.HAL_DMA_UnRegisterCallback,"ax",%progbits
 1592              		.align	1
 1593              		.global	HAL_DMA_UnRegisterCallback
 1594              		.syntax unified
 1595              		.thumb
 1596              		.thumb_func
 1598              	HAL_DMA_UnRegisterCallback:
 1599              	.LVL81:
 1600              	.LFB74:
 745:C:/Users/vovua/STM32Cube/Repository/STM32Cube_FW_F1_V1.8.4/Drivers/STM32F1xx_HAL_Driver/Src\stm32f1xx_hal_dma.c ****   HAL_StatusTypeDef status = HAL_OK;
 1601              		.loc 1 745 1 is_stmt 1 view -0
 1602              		.cfi_startproc
 1603              		@ args = 0, pretend = 0, frame = 0
 1604              		@ frame_needed = 0, uses_anonymous_args = 0
 1605              		@ link register save eliminated.
 745:C:/Users/vovua/STM32Cube/Repository/STM32Cube_FW_F1_V1.8.4/Drivers/STM32F1xx_HAL_Driver/Src\stm32f1xx_hal_dma.c ****   HAL_StatusTypeDef status = HAL_OK;
 1606              		.loc 1 745 1 is_stmt 0 view .LVU493
 1607 0000 0346     		mov	r3, r0
 746:C:/Users/vovua/STM32Cube/Repository/STM32Cube_FW_F1_V1.8.4/Drivers/STM32F1xx_HAL_Driver/Src\stm32f1xx_hal_dma.c **** 
 1608              		.loc 1 746 3 is_stmt 1 view .LVU494
 1609              	.LVL82:
 749:C:/Users/vovua/STM32Cube/Repository/STM32Cube_FW_F1_V1.8.4/Drivers/STM32F1xx_HAL_Driver/Src\stm32f1xx_hal_dma.c ****   
 1610              		.loc 1 749 3 view .LVU495
 749:C:/Users/vovua/STM32Cube/Repository/STM32Cube_FW_F1_V1.8.4/Drivers/STM32F1xx_HAL_Driver/Src\stm32f1xx_hal_dma.c ****   
 1611              		.loc 1 749 3 view .LVU496
 1612 0002 90F82020 		ldrb	r2, [r0, #32]	@ zero_extendqisi2
 1613 0006 012A     		cmp	r2, #1
 1614 0008 25D0     		beq	.L160
 749:C:/Users/vovua/STM32Cube/Repository/STM32Cube_FW_F1_V1.8.4/Drivers/STM32F1xx_HAL_Driver/Src\stm32f1xx_hal_dma.c ****   
 1615              		.loc 1 749 3 discriminator 2 view .LVU497
 1616 000a 0122     		movs	r2, #1
 1617 000c 80F82020 		strb	r2, [r0, #32]
 749:C:/Users/vovua/STM32Cube/Repository/STM32Cube_FW_F1_V1.8.4/Drivers/STM32F1xx_HAL_Driver/Src\stm32f1xx_hal_dma.c ****   
 1618              		.loc 1 749 3 discriminator 2 view .LVU498
 751:C:/Users/vovua/STM32Cube/Repository/STM32Cube_FW_F1_V1.8.4/Drivers/STM32F1xx_HAL_Driver/Src\stm32f1xx_hal_dma.c ****   {
 1619              		.loc 1 751 3 discriminator 2 view .LVU499
ARM GAS  C:\Users\vovua\AppData\Local\Temp\cc7FFceq.s 			page 53


 751:C:/Users/vovua/STM32Cube/Repository/STM32Cube_FW_F1_V1.8.4/Drivers/STM32F1xx_HAL_Driver/Src\stm32f1xx_hal_dma.c ****   {
 1620              		.loc 1 751 33 is_stmt 0 discriminator 2 view .LVU500
 1621 0010 90F82100 		ldrb	r0, [r0, #33]	@ zero_extendqisi2
 1622              	.LVL83:
 751:C:/Users/vovua/STM32Cube/Repository/STM32Cube_FW_F1_V1.8.4/Drivers/STM32F1xx_HAL_Driver/Src\stm32f1xx_hal_dma.c ****   {
 1623              		.loc 1 751 5 discriminator 2 view .LVU501
 1624 0014 9042     		cmp	r0, r2
 1625 0016 04D0     		beq	.L163
 785:C:/Users/vovua/STM32Cube/Repository/STM32Cube_FW_F1_V1.8.4/Drivers/STM32F1xx_HAL_Driver/Src\stm32f1xx_hal_dma.c ****   } 
 1626              		.loc 1 785 12 view .LVU502
 1627 0018 0120     		movs	r0, #1
 1628              	.L153:
 1629              	.LVL84:
 789:C:/Users/vovua/STM32Cube/Repository/STM32Cube_FW_F1_V1.8.4/Drivers/STM32F1xx_HAL_Driver/Src\stm32f1xx_hal_dma.c ****   
 1630              		.loc 1 789 3 is_stmt 1 view .LVU503
 789:C:/Users/vovua/STM32Cube/Repository/STM32Cube_FW_F1_V1.8.4/Drivers/STM32F1xx_HAL_Driver/Src\stm32f1xx_hal_dma.c ****   
 1631              		.loc 1 789 3 view .LVU504
 1632 001a 0022     		movs	r2, #0
 1633 001c 83F82020 		strb	r2, [r3, #32]
 789:C:/Users/vovua/STM32Cube/Repository/STM32Cube_FW_F1_V1.8.4/Drivers/STM32F1xx_HAL_Driver/Src\stm32f1xx_hal_dma.c ****   
 1634              		.loc 1 789 3 view .LVU505
 791:C:/Users/vovua/STM32Cube/Repository/STM32Cube_FW_F1_V1.8.4/Drivers/STM32F1xx_HAL_Driver/Src\stm32f1xx_hal_dma.c **** }
 1635              		.loc 1 791 3 view .LVU506
 791:C:/Users/vovua/STM32Cube/Repository/STM32Cube_FW_F1_V1.8.4/Drivers/STM32F1xx_HAL_Driver/Src\stm32f1xx_hal_dma.c **** }
 1636              		.loc 1 791 10 is_stmt 0 view .LVU507
 1637 0020 7047     		bx	lr
 1638              	.LVL85:
 1639              	.L163:
 753:C:/Users/vovua/STM32Cube/Repository/STM32Cube_FW_F1_V1.8.4/Drivers/STM32F1xx_HAL_Driver/Src\stm32f1xx_hal_dma.c ****     {
 1640              		.loc 1 753 5 is_stmt 1 view .LVU508
 1641 0022 0429     		cmp	r1, #4
 1642 0024 F9D8     		bhi	.L153
 1643 0026 DFE801F0 		tbb	[pc, r1]
 1644              	.L155:
 1645 002a 03       		.byte	(.L159-.L155)/2
 1646 002b 07       		.byte	(.L158-.L155)/2
 1647 002c 0A       		.byte	(.L157-.L155)/2
 1648 002d 0D       		.byte	(.L156-.L155)/2
 1649 002e 10       		.byte	(.L154-.L155)/2
 1650 002f 00       		.p2align 1
 1651              	.L159:
 756:C:/Users/vovua/STM32Cube/Repository/STM32Cube_FW_F1_V1.8.4/Drivers/STM32F1xx_HAL_Driver/Src\stm32f1xx_hal_dma.c ****       break;
 1652              		.loc 1 756 7 view .LVU509
 756:C:/Users/vovua/STM32Cube/Repository/STM32Cube_FW_F1_V1.8.4/Drivers/STM32F1xx_HAL_Driver/Src\stm32f1xx_hal_dma.c ****       break;
 1653              		.loc 1 756 30 is_stmt 0 view .LVU510
 1654 0030 0022     		movs	r2, #0
 1655 0032 9A62     		str	r2, [r3, #40]
 757:C:/Users/vovua/STM32Cube/Repository/STM32Cube_FW_F1_V1.8.4/Drivers/STM32F1xx_HAL_Driver/Src\stm32f1xx_hal_dma.c **** 
 1656              		.loc 1 757 7 is_stmt 1 view .LVU511
 746:C:/Users/vovua/STM32Cube/Repository/STM32Cube_FW_F1_V1.8.4/Drivers/STM32F1xx_HAL_Driver/Src\stm32f1xx_hal_dma.c **** 
 1657              		.loc 1 746 21 is_stmt 0 view .LVU512
 1658 0034 0846     		mov	r0, r1
 757:C:/Users/vovua/STM32Cube/Repository/STM32Cube_FW_F1_V1.8.4/Drivers/STM32F1xx_HAL_Driver/Src\stm32f1xx_hal_dma.c **** 
 1659              		.loc 1 757 7 view .LVU513
 1660 0036 F0E7     		b	.L153
 1661              	.L158:
 760:C:/Users/vovua/STM32Cube/Repository/STM32Cube_FW_F1_V1.8.4/Drivers/STM32F1xx_HAL_Driver/Src\stm32f1xx_hal_dma.c ****       break;         
ARM GAS  C:\Users\vovua\AppData\Local\Temp\cc7FFceq.s 			page 54


 1662              		.loc 1 760 7 is_stmt 1 view .LVU514
 760:C:/Users/vovua/STM32Cube/Repository/STM32Cube_FW_F1_V1.8.4/Drivers/STM32F1xx_HAL_Driver/Src\stm32f1xx_hal_dma.c ****       break;         
 1663              		.loc 1 760 34 is_stmt 0 view .LVU515
 1664 0038 0020     		movs	r0, #0
 1665 003a D862     		str	r0, [r3, #44]
 761:C:/Users/vovua/STM32Cube/Repository/STM32Cube_FW_F1_V1.8.4/Drivers/STM32F1xx_HAL_Driver/Src\stm32f1xx_hal_dma.c **** 
 1666              		.loc 1 761 7 is_stmt 1 view .LVU516
 1667 003c EDE7     		b	.L153
 1668              	.L157:
 764:C:/Users/vovua/STM32Cube/Repository/STM32Cube_FW_F1_V1.8.4/Drivers/STM32F1xx_HAL_Driver/Src\stm32f1xx_hal_dma.c ****       break;         
 1669              		.loc 1 764 7 view .LVU517
 764:C:/Users/vovua/STM32Cube/Repository/STM32Cube_FW_F1_V1.8.4/Drivers/STM32F1xx_HAL_Driver/Src\stm32f1xx_hal_dma.c ****       break;         
 1670              		.loc 1 764 31 is_stmt 0 view .LVU518
 1671 003e 0020     		movs	r0, #0
 1672 0040 1863     		str	r0, [r3, #48]
 765:C:/Users/vovua/STM32Cube/Repository/STM32Cube_FW_F1_V1.8.4/Drivers/STM32F1xx_HAL_Driver/Src\stm32f1xx_hal_dma.c **** 
 1673              		.loc 1 765 7 is_stmt 1 view .LVU519
 1674 0042 EAE7     		b	.L153
 1675              	.L156:
 768:C:/Users/vovua/STM32Cube/Repository/STM32Cube_FW_F1_V1.8.4/Drivers/STM32F1xx_HAL_Driver/Src\stm32f1xx_hal_dma.c ****       break; 
 1676              		.loc 1 768 7 view .LVU520
 768:C:/Users/vovua/STM32Cube/Repository/STM32Cube_FW_F1_V1.8.4/Drivers/STM32F1xx_HAL_Driver/Src\stm32f1xx_hal_dma.c ****       break; 
 1677              		.loc 1 768 31 is_stmt 0 view .LVU521
 1678 0044 0020     		movs	r0, #0
 1679 0046 5863     		str	r0, [r3, #52]
 769:C:/Users/vovua/STM32Cube/Repository/STM32Cube_FW_F1_V1.8.4/Drivers/STM32F1xx_HAL_Driver/Src\stm32f1xx_hal_dma.c **** 
 1680              		.loc 1 769 7 is_stmt 1 view .LVU522
 1681 0048 E7E7     		b	.L153
 1682              	.L154:
 772:C:/Users/vovua/STM32Cube/Repository/STM32Cube_FW_F1_V1.8.4/Drivers/STM32F1xx_HAL_Driver/Src\stm32f1xx_hal_dma.c ****       hdma->XferHalfCpltCallback = NULL;
 1683              		.loc 1 772 7 view .LVU523
 772:C:/Users/vovua/STM32Cube/Repository/STM32Cube_FW_F1_V1.8.4/Drivers/STM32F1xx_HAL_Driver/Src\stm32f1xx_hal_dma.c ****       hdma->XferHalfCpltCallback = NULL;
 1684              		.loc 1 772 30 is_stmt 0 view .LVU524
 1685 004a 0020     		movs	r0, #0
 1686 004c 9862     		str	r0, [r3, #40]
 773:C:/Users/vovua/STM32Cube/Repository/STM32Cube_FW_F1_V1.8.4/Drivers/STM32F1xx_HAL_Driver/Src\stm32f1xx_hal_dma.c ****       hdma->XferErrorCallback = NULL;
 1687              		.loc 1 773 7 is_stmt 1 view .LVU525
 773:C:/Users/vovua/STM32Cube/Repository/STM32Cube_FW_F1_V1.8.4/Drivers/STM32F1xx_HAL_Driver/Src\stm32f1xx_hal_dma.c ****       hdma->XferErrorCallback = NULL;
 1688              		.loc 1 773 34 is_stmt 0 view .LVU526
 1689 004e D862     		str	r0, [r3, #44]
 774:C:/Users/vovua/STM32Cube/Repository/STM32Cube_FW_F1_V1.8.4/Drivers/STM32F1xx_HAL_Driver/Src\stm32f1xx_hal_dma.c ****       hdma->XferAbortCallback = NULL;
 1690              		.loc 1 774 7 is_stmt 1 view .LVU527
 774:C:/Users/vovua/STM32Cube/Repository/STM32Cube_FW_F1_V1.8.4/Drivers/STM32F1xx_HAL_Driver/Src\stm32f1xx_hal_dma.c ****       hdma->XferAbortCallback = NULL;
 1691              		.loc 1 774 31 is_stmt 0 view .LVU528
 1692 0050 1863     		str	r0, [r3, #48]
 775:C:/Users/vovua/STM32Cube/Repository/STM32Cube_FW_F1_V1.8.4/Drivers/STM32F1xx_HAL_Driver/Src\stm32f1xx_hal_dma.c ****       break; 
 1693              		.loc 1 775 7 is_stmt 1 view .LVU529
 775:C:/Users/vovua/STM32Cube/Repository/STM32Cube_FW_F1_V1.8.4/Drivers/STM32F1xx_HAL_Driver/Src\stm32f1xx_hal_dma.c ****       break; 
 1694              		.loc 1 775 31 is_stmt 0 view .LVU530
 1695 0052 5863     		str	r0, [r3, #52]
 776:C:/Users/vovua/STM32Cube/Repository/STM32Cube_FW_F1_V1.8.4/Drivers/STM32F1xx_HAL_Driver/Src\stm32f1xx_hal_dma.c **** 
 1696              		.loc 1 776 7 is_stmt 1 view .LVU531
 1697 0054 E1E7     		b	.L153
 1698              	.LVL86:
 1699              	.L160:
 749:C:/Users/vovua/STM32Cube/Repository/STM32Cube_FW_F1_V1.8.4/Drivers/STM32F1xx_HAL_Driver/Src\stm32f1xx_hal_dma.c ****   
 1700              		.loc 1 749 3 is_stmt 0 view .LVU532
ARM GAS  C:\Users\vovua\AppData\Local\Temp\cc7FFceq.s 			page 55


 1701 0056 0220     		movs	r0, #2
 1702              	.LVL87:
 792:C:/Users/vovua/STM32Cube/Repository/STM32Cube_FW_F1_V1.8.4/Drivers/STM32F1xx_HAL_Driver/Src\stm32f1xx_hal_dma.c ****   
 1703              		.loc 1 792 1 view .LVU533
 1704 0058 7047     		bx	lr
 1705              		.cfi_endproc
 1706              	.LFE74:
 1708              		.section	.text.HAL_DMA_GetState,"ax",%progbits
 1709              		.align	1
 1710              		.global	HAL_DMA_GetState
 1711              		.syntax unified
 1712              		.thumb
 1713              		.thumb_func
 1715              	HAL_DMA_GetState:
 1716              	.LVL88:
 1717              	.LFB75:
 821:C:/Users/vovua/STM32Cube/Repository/STM32Cube_FW_F1_V1.8.4/Drivers/STM32F1xx_HAL_Driver/Src\stm32f1xx_hal_dma.c ****   /* Return DMA handle state */
 1718              		.loc 1 821 1 is_stmt 1 view -0
 1719              		.cfi_startproc
 1720              		@ args = 0, pretend = 0, frame = 0
 1721              		@ frame_needed = 0, uses_anonymous_args = 0
 1722              		@ link register save eliminated.
 823:C:/Users/vovua/STM32Cube/Repository/STM32Cube_FW_F1_V1.8.4/Drivers/STM32F1xx_HAL_Driver/Src\stm32f1xx_hal_dma.c **** }
 1723              		.loc 1 823 3 view .LVU535
 824:C:/Users/vovua/STM32Cube/Repository/STM32Cube_FW_F1_V1.8.4/Drivers/STM32F1xx_HAL_Driver/Src\stm32f1xx_hal_dma.c **** 
 1724              		.loc 1 824 1 is_stmt 0 view .LVU536
 1725 0000 90F82100 		ldrb	r0, [r0, #33]	@ zero_extendqisi2
 1726              	.LVL89:
 824:C:/Users/vovua/STM32Cube/Repository/STM32Cube_FW_F1_V1.8.4/Drivers/STM32F1xx_HAL_Driver/Src\stm32f1xx_hal_dma.c **** 
 1727              		.loc 1 824 1 view .LVU537
 1728 0004 7047     		bx	lr
 1729              		.cfi_endproc
 1730              	.LFE75:
 1732              		.section	.text.HAL_DMA_GetError,"ax",%progbits
 1733              		.align	1
 1734              		.global	HAL_DMA_GetError
 1735              		.syntax unified
 1736              		.thumb
 1737              		.thumb_func
 1739              	HAL_DMA_GetError:
 1740              	.LVL90:
 1741              	.LFB76:
 833:C:/Users/vovua/STM32Cube/Repository/STM32Cube_FW_F1_V1.8.4/Drivers/STM32F1xx_HAL_Driver/Src\stm32f1xx_hal_dma.c ****   return hdma->ErrorCode;
 1742              		.loc 1 833 1 is_stmt 1 view -0
 1743              		.cfi_startproc
 1744              		@ args = 0, pretend = 0, frame = 0
 1745              		@ frame_needed = 0, uses_anonymous_args = 0
 1746              		@ link register save eliminated.
 834:C:/Users/vovua/STM32Cube/Repository/STM32Cube_FW_F1_V1.8.4/Drivers/STM32F1xx_HAL_Driver/Src\stm32f1xx_hal_dma.c **** }
 1747              		.loc 1 834 3 view .LVU539
 834:C:/Users/vovua/STM32Cube/Repository/STM32Cube_FW_F1_V1.8.4/Drivers/STM32F1xx_HAL_Driver/Src\stm32f1xx_hal_dma.c **** }
 1748              		.loc 1 834 14 is_stmt 0 view .LVU540
 1749 0000 806B     		ldr	r0, [r0, #56]
 1750              	.LVL91:
 835:C:/Users/vovua/STM32Cube/Repository/STM32Cube_FW_F1_V1.8.4/Drivers/STM32F1xx_HAL_Driver/Src\stm32f1xx_hal_dma.c **** 
 1751              		.loc 1 835 1 view .LVU541
 1752 0002 7047     		bx	lr
ARM GAS  C:\Users\vovua\AppData\Local\Temp\cc7FFceq.s 			page 56


 1753              		.cfi_endproc
 1754              	.LFE76:
 1756              		.text
 1757              	.Letext0:
 1758              		.file 2 "c:\\arm-gnu-toolchain-12.2.rel1-mingw-w64-i686-arm-none-eabi\\arm-none-eabi\\include\\mac
 1759              		.file 3 "c:\\arm-gnu-toolchain-12.2.rel1-mingw-w64-i686-arm-none-eabi\\arm-none-eabi\\include\\sys
 1760              		.file 4 "C:/Users/vovua/STM32Cube/Repository/STM32Cube_FW_F1_V1.8.4/Drivers/CMSIS/Device/ST/STM32F
 1761              		.file 5 "C:/Users/vovua/STM32Cube/Repository/STM32Cube_FW_F1_V1.8.4/Drivers/CMSIS/Device/ST/STM32F
 1762              		.file 6 "C:/Users/vovua/STM32Cube/Repository/STM32Cube_FW_F1_V1.8.4/Drivers/STM32F1xx_HAL_Driver/I
 1763              		.file 7 "C:/Users/vovua/STM32Cube/Repository/STM32Cube_FW_F1_V1.8.4/Drivers/STM32F1xx_HAL_Driver/I
 1764              		.file 8 "C:/Users/vovua/STM32Cube/Repository/STM32Cube_FW_F1_V1.8.4/Drivers/STM32F1xx_HAL_Driver/I
ARM GAS  C:\Users\vovua\AppData\Local\Temp\cc7FFceq.s 			page 57


DEFINED SYMBOLS
                            *ABS*:00000000 stm32f1xx_hal_dma.c
C:\Users\vovua\AppData\Local\Temp\cc7FFceq.s:19     .text.DMA_SetConfig:00000000 $t
C:\Users\vovua\AppData\Local\Temp\cc7FFceq.s:24     .text.DMA_SetConfig:00000000 DMA_SetConfig
C:\Users\vovua\AppData\Local\Temp\cc7FFceq.s:98     .text.HAL_DMA_Init:00000000 $t
C:\Users\vovua\AppData\Local\Temp\cc7FFceq.s:104    .text.HAL_DMA_Init:00000000 HAL_DMA_Init
C:\Users\vovua\AppData\Local\Temp\cc7FFceq.s:222    .text.HAL_DMA_Init:00000060 $d
C:\Users\vovua\AppData\Local\Temp\cc7FFceq.s:229    .text.HAL_DMA_DeInit:00000000 $t
C:\Users\vovua\AppData\Local\Temp\cc7FFceq.s:235    .text.HAL_DMA_DeInit:00000000 HAL_DMA_DeInit
C:\Users\vovua\AppData\Local\Temp\cc7FFceq.s:345    .text.HAL_DMA_DeInit:0000005c $d
C:\Users\vovua\AppData\Local\Temp\cc7FFceq.s:352    .text.HAL_DMA_Start:00000000 $t
C:\Users\vovua\AppData\Local\Temp\cc7FFceq.s:358    .text.HAL_DMA_Start:00000000 HAL_DMA_Start
C:\Users\vovua\AppData\Local\Temp\cc7FFceq.s:445    .text.HAL_DMA_Start_IT:00000000 $t
C:\Users\vovua\AppData\Local\Temp\cc7FFceq.s:451    .text.HAL_DMA_Start_IT:00000000 HAL_DMA_Start_IT
C:\Users\vovua\AppData\Local\Temp\cc7FFceq.s:561    .text.HAL_DMA_Abort:00000000 $t
C:\Users\vovua\AppData\Local\Temp\cc7FFceq.s:567    .text.HAL_DMA_Abort:00000000 HAL_DMA_Abort
C:\Users\vovua\AppData\Local\Temp\cc7FFceq.s:638    .text.HAL_DMA_Abort_IT:00000000 $t
C:\Users\vovua\AppData\Local\Temp\cc7FFceq.s:644    .text.HAL_DMA_Abort_IT:00000000 HAL_DMA_Abort_IT
C:\Users\vovua\AppData\Local\Temp\cc7FFceq.s:770    .text.HAL_DMA_Abort_IT:00000090 $d
C:\Users\vovua\AppData\Local\Temp\cc7FFceq.s:776    .text.HAL_DMA_PollForTransfer:00000000 $t
C:\Users\vovua\AppData\Local\Temp\cc7FFceq.s:782    .text.HAL_DMA_PollForTransfer:00000000 HAL_DMA_PollForTransfer
C:\Users\vovua\AppData\Local\Temp\cc7FFceq.s:1206   .text.HAL_DMA_PollForTransfer:00000224 $d
C:\Users\vovua\AppData\Local\Temp\cc7FFceq.s:1212   .text.HAL_DMA_IRQHandler:00000000 $t
C:\Users\vovua\AppData\Local\Temp\cc7FFceq.s:1218   .text.HAL_DMA_IRQHandler:00000000 HAL_DMA_IRQHandler
C:\Users\vovua\AppData\Local\Temp\cc7FFceq.s:1480   .text.HAL_DMA_IRQHandler:0000013c $d
C:\Users\vovua\AppData\Local\Temp\cc7FFceq.s:1486   .text.HAL_DMA_RegisterCallback:00000000 $t
C:\Users\vovua\AppData\Local\Temp\cc7FFceq.s:1492   .text.HAL_DMA_RegisterCallback:00000000 HAL_DMA_RegisterCallback
C:\Users\vovua\AppData\Local\Temp\cc7FFceq.s:1542   .text.HAL_DMA_RegisterCallback:0000002a $d
C:\Users\vovua\AppData\Local\Temp\cc7FFceq.s:1546   .text.HAL_DMA_RegisterCallback:0000002e $t
C:\Users\vovua\AppData\Local\Temp\cc7FFceq.s:1592   .text.HAL_DMA_UnRegisterCallback:00000000 $t
C:\Users\vovua\AppData\Local\Temp\cc7FFceq.s:1598   .text.HAL_DMA_UnRegisterCallback:00000000 HAL_DMA_UnRegisterCallback
C:\Users\vovua\AppData\Local\Temp\cc7FFceq.s:1645   .text.HAL_DMA_UnRegisterCallback:0000002a $d
C:\Users\vovua\AppData\Local\Temp\cc7FFceq.s:1709   .text.HAL_DMA_GetState:00000000 $t
C:\Users\vovua\AppData\Local\Temp\cc7FFceq.s:1715   .text.HAL_DMA_GetState:00000000 HAL_DMA_GetState
C:\Users\vovua\AppData\Local\Temp\cc7FFceq.s:1733   .text.HAL_DMA_GetError:00000000 $t
C:\Users\vovua\AppData\Local\Temp\cc7FFceq.s:1739   .text.HAL_DMA_GetError:00000000 HAL_DMA_GetError
C:\Users\vovua\AppData\Local\Temp\cc7FFceq.s:1650   .text.HAL_DMA_UnRegisterCallback:0000002f $d
C:\Users\vovua\AppData\Local\Temp\cc7FFceq.s:1650   .text.HAL_DMA_UnRegisterCallback:00000030 $t

UNDEFINED SYMBOLS
HAL_GetTick
