ARM GAS  C:\Users\vovua\AppData\Local\Temp\ccmOFQ3a.s 			page 1


   1              		.cpu cortex-m3
   2              		.arch armv7-m
   3              		.fpu softvfp
   4              		.eabi_attribute 20, 1
   5              		.eabi_attribute 21, 1
   6              		.eabi_attribute 23, 3
   7              		.eabi_attribute 24, 1
   8              		.eabi_attribute 25, 1
   9              		.eabi_attribute 26, 1
  10              		.eabi_attribute 30, 1
  11              		.eabi_attribute 34, 1
  12              		.eabi_attribute 18, 4
  13              		.file	"stm32f1xx_hal_rcc_ex.c"
  14              		.text
  15              	.Ltext0:
  16              		.cfi_sections	.debug_frame
  17              		.file 1 "C:/Users/vovua/STM32Cube/Repository/STM32Cube_FW_F1_V1.8.4/Drivers/STM32F1xx_HAL_Driver/S
  18              		.section	.text.HAL_RCCEx_PeriphCLKConfig,"ax",%progbits
  19              		.align	1
  20              		.global	HAL_RCCEx_PeriphCLKConfig
  21              		.syntax unified
  22              		.thumb
  23              		.thumb_func
  25              	HAL_RCCEx_PeriphCLKConfig:
  26              	.LVL0:
  27              	.LFB65:
   1:C:/Users/vovua/STM32Cube/Repository/STM32Cube_FW_F1_V1.8.4/Drivers/STM32F1xx_HAL_Driver/Src\stm32f1xx_hal_rcc_ex.c **** /**
   2:C:/Users/vovua/STM32Cube/Repository/STM32Cube_FW_F1_V1.8.4/Drivers/STM32F1xx_HAL_Driver/Src\stm32f1xx_hal_rcc_ex.c ****   ******************************************************************************
   3:C:/Users/vovua/STM32Cube/Repository/STM32Cube_FW_F1_V1.8.4/Drivers/STM32F1xx_HAL_Driver/Src\stm32f1xx_hal_rcc_ex.c ****   * @file    stm32f1xx_hal_rcc_ex.c
   4:C:/Users/vovua/STM32Cube/Repository/STM32Cube_FW_F1_V1.8.4/Drivers/STM32F1xx_HAL_Driver/Src\stm32f1xx_hal_rcc_ex.c ****   * @author  MCD Application Team
   5:C:/Users/vovua/STM32Cube/Repository/STM32Cube_FW_F1_V1.8.4/Drivers/STM32F1xx_HAL_Driver/Src\stm32f1xx_hal_rcc_ex.c ****   * @brief   Extended RCC HAL module driver.
   6:C:/Users/vovua/STM32Cube/Repository/STM32Cube_FW_F1_V1.8.4/Drivers/STM32F1xx_HAL_Driver/Src\stm32f1xx_hal_rcc_ex.c ****   *          This file provides firmware functions to manage the following
   7:C:/Users/vovua/STM32Cube/Repository/STM32Cube_FW_F1_V1.8.4/Drivers/STM32F1xx_HAL_Driver/Src\stm32f1xx_hal_rcc_ex.c ****   *          functionalities RCC extension peripheral:
   8:C:/Users/vovua/STM32Cube/Repository/STM32Cube_FW_F1_V1.8.4/Drivers/STM32F1xx_HAL_Driver/Src\stm32f1xx_hal_rcc_ex.c ****   *           + Extended Peripheral Control functions
   9:C:/Users/vovua/STM32Cube/Repository/STM32Cube_FW_F1_V1.8.4/Drivers/STM32F1xx_HAL_Driver/Src\stm32f1xx_hal_rcc_ex.c ****   *
  10:C:/Users/vovua/STM32Cube/Repository/STM32Cube_FW_F1_V1.8.4/Drivers/STM32F1xx_HAL_Driver/Src\stm32f1xx_hal_rcc_ex.c ****   ******************************************************************************
  11:C:/Users/vovua/STM32Cube/Repository/STM32Cube_FW_F1_V1.8.4/Drivers/STM32F1xx_HAL_Driver/Src\stm32f1xx_hal_rcc_ex.c ****   * @attention
  12:C:/Users/vovua/STM32Cube/Repository/STM32Cube_FW_F1_V1.8.4/Drivers/STM32F1xx_HAL_Driver/Src\stm32f1xx_hal_rcc_ex.c ****   *
  13:C:/Users/vovua/STM32Cube/Repository/STM32Cube_FW_F1_V1.8.4/Drivers/STM32F1xx_HAL_Driver/Src\stm32f1xx_hal_rcc_ex.c ****   * <h2><center>&copy; Copyright (c) 2016 STMicroelectronics.
  14:C:/Users/vovua/STM32Cube/Repository/STM32Cube_FW_F1_V1.8.4/Drivers/STM32F1xx_HAL_Driver/Src\stm32f1xx_hal_rcc_ex.c ****   * All rights reserved.</center></h2>
  15:C:/Users/vovua/STM32Cube/Repository/STM32Cube_FW_F1_V1.8.4/Drivers/STM32F1xx_HAL_Driver/Src\stm32f1xx_hal_rcc_ex.c ****   *
  16:C:/Users/vovua/STM32Cube/Repository/STM32Cube_FW_F1_V1.8.4/Drivers/STM32F1xx_HAL_Driver/Src\stm32f1xx_hal_rcc_ex.c ****   * This software component is licensed by ST under BSD 3-Clause license,
  17:C:/Users/vovua/STM32Cube/Repository/STM32Cube_FW_F1_V1.8.4/Drivers/STM32F1xx_HAL_Driver/Src\stm32f1xx_hal_rcc_ex.c ****   * the "License"; You may not use this file except in compliance with the
  18:C:/Users/vovua/STM32Cube/Repository/STM32Cube_FW_F1_V1.8.4/Drivers/STM32F1xx_HAL_Driver/Src\stm32f1xx_hal_rcc_ex.c ****   * License. You may obtain a copy of the License at:
  19:C:/Users/vovua/STM32Cube/Repository/STM32Cube_FW_F1_V1.8.4/Drivers/STM32F1xx_HAL_Driver/Src\stm32f1xx_hal_rcc_ex.c ****   *                        opensource.org/licenses/BSD-3-Clause
  20:C:/Users/vovua/STM32Cube/Repository/STM32Cube_FW_F1_V1.8.4/Drivers/STM32F1xx_HAL_Driver/Src\stm32f1xx_hal_rcc_ex.c ****   *
  21:C:/Users/vovua/STM32Cube/Repository/STM32Cube_FW_F1_V1.8.4/Drivers/STM32F1xx_HAL_Driver/Src\stm32f1xx_hal_rcc_ex.c ****   ******************************************************************************
  22:C:/Users/vovua/STM32Cube/Repository/STM32Cube_FW_F1_V1.8.4/Drivers/STM32F1xx_HAL_Driver/Src\stm32f1xx_hal_rcc_ex.c ****   */
  23:C:/Users/vovua/STM32Cube/Repository/STM32Cube_FW_F1_V1.8.4/Drivers/STM32F1xx_HAL_Driver/Src\stm32f1xx_hal_rcc_ex.c **** 
  24:C:/Users/vovua/STM32Cube/Repository/STM32Cube_FW_F1_V1.8.4/Drivers/STM32F1xx_HAL_Driver/Src\stm32f1xx_hal_rcc_ex.c **** /* Includes ------------------------------------------------------------------*/
  25:C:/Users/vovua/STM32Cube/Repository/STM32Cube_FW_F1_V1.8.4/Drivers/STM32F1xx_HAL_Driver/Src\stm32f1xx_hal_rcc_ex.c **** #include "stm32f1xx_hal.h"
  26:C:/Users/vovua/STM32Cube/Repository/STM32Cube_FW_F1_V1.8.4/Drivers/STM32F1xx_HAL_Driver/Src\stm32f1xx_hal_rcc_ex.c **** 
  27:C:/Users/vovua/STM32Cube/Repository/STM32Cube_FW_F1_V1.8.4/Drivers/STM32F1xx_HAL_Driver/Src\stm32f1xx_hal_rcc_ex.c **** /** @addtogroup STM32F1xx_HAL_Driver
  28:C:/Users/vovua/STM32Cube/Repository/STM32Cube_FW_F1_V1.8.4/Drivers/STM32F1xx_HAL_Driver/Src\stm32f1xx_hal_rcc_ex.c ****   * @{
  29:C:/Users/vovua/STM32Cube/Repository/STM32Cube_FW_F1_V1.8.4/Drivers/STM32F1xx_HAL_Driver/Src\stm32f1xx_hal_rcc_ex.c ****   */
  30:C:/Users/vovua/STM32Cube/Repository/STM32Cube_FW_F1_V1.8.4/Drivers/STM32F1xx_HAL_Driver/Src\stm32f1xx_hal_rcc_ex.c **** 
  31:C:/Users/vovua/STM32Cube/Repository/STM32Cube_FW_F1_V1.8.4/Drivers/STM32F1xx_HAL_Driver/Src\stm32f1xx_hal_rcc_ex.c **** #ifdef HAL_RCC_MODULE_ENABLED
ARM GAS  C:\Users\vovua\AppData\Local\Temp\ccmOFQ3a.s 			page 2


  32:C:/Users/vovua/STM32Cube/Repository/STM32Cube_FW_F1_V1.8.4/Drivers/STM32F1xx_HAL_Driver/Src\stm32f1xx_hal_rcc_ex.c **** 
  33:C:/Users/vovua/STM32Cube/Repository/STM32Cube_FW_F1_V1.8.4/Drivers/STM32F1xx_HAL_Driver/Src\stm32f1xx_hal_rcc_ex.c **** /** @defgroup RCCEx RCCEx
  34:C:/Users/vovua/STM32Cube/Repository/STM32Cube_FW_F1_V1.8.4/Drivers/STM32F1xx_HAL_Driver/Src\stm32f1xx_hal_rcc_ex.c ****   * @brief RCC Extension HAL module driver.
  35:C:/Users/vovua/STM32Cube/Repository/STM32Cube_FW_F1_V1.8.4/Drivers/STM32F1xx_HAL_Driver/Src\stm32f1xx_hal_rcc_ex.c ****   * @{
  36:C:/Users/vovua/STM32Cube/Repository/STM32Cube_FW_F1_V1.8.4/Drivers/STM32F1xx_HAL_Driver/Src\stm32f1xx_hal_rcc_ex.c ****   */
  37:C:/Users/vovua/STM32Cube/Repository/STM32Cube_FW_F1_V1.8.4/Drivers/STM32F1xx_HAL_Driver/Src\stm32f1xx_hal_rcc_ex.c **** 
  38:C:/Users/vovua/STM32Cube/Repository/STM32Cube_FW_F1_V1.8.4/Drivers/STM32F1xx_HAL_Driver/Src\stm32f1xx_hal_rcc_ex.c **** /* Private typedef -----------------------------------------------------------*/
  39:C:/Users/vovua/STM32Cube/Repository/STM32Cube_FW_F1_V1.8.4/Drivers/STM32F1xx_HAL_Driver/Src\stm32f1xx_hal_rcc_ex.c **** /* Private define ------------------------------------------------------------*/
  40:C:/Users/vovua/STM32Cube/Repository/STM32Cube_FW_F1_V1.8.4/Drivers/STM32F1xx_HAL_Driver/Src\stm32f1xx_hal_rcc_ex.c **** /** @defgroup RCCEx_Private_Constants RCCEx Private Constants
  41:C:/Users/vovua/STM32Cube/Repository/STM32Cube_FW_F1_V1.8.4/Drivers/STM32F1xx_HAL_Driver/Src\stm32f1xx_hal_rcc_ex.c ****   * @{
  42:C:/Users/vovua/STM32Cube/Repository/STM32Cube_FW_F1_V1.8.4/Drivers/STM32F1xx_HAL_Driver/Src\stm32f1xx_hal_rcc_ex.c ****   */
  43:C:/Users/vovua/STM32Cube/Repository/STM32Cube_FW_F1_V1.8.4/Drivers/STM32F1xx_HAL_Driver/Src\stm32f1xx_hal_rcc_ex.c **** /**
  44:C:/Users/vovua/STM32Cube/Repository/STM32Cube_FW_F1_V1.8.4/Drivers/STM32F1xx_HAL_Driver/Src\stm32f1xx_hal_rcc_ex.c ****   * @}
  45:C:/Users/vovua/STM32Cube/Repository/STM32Cube_FW_F1_V1.8.4/Drivers/STM32F1xx_HAL_Driver/Src\stm32f1xx_hal_rcc_ex.c ****   */
  46:C:/Users/vovua/STM32Cube/Repository/STM32Cube_FW_F1_V1.8.4/Drivers/STM32F1xx_HAL_Driver/Src\stm32f1xx_hal_rcc_ex.c **** 
  47:C:/Users/vovua/STM32Cube/Repository/STM32Cube_FW_F1_V1.8.4/Drivers/STM32F1xx_HAL_Driver/Src\stm32f1xx_hal_rcc_ex.c **** /* Private macro -------------------------------------------------------------*/
  48:C:/Users/vovua/STM32Cube/Repository/STM32Cube_FW_F1_V1.8.4/Drivers/STM32F1xx_HAL_Driver/Src\stm32f1xx_hal_rcc_ex.c **** /** @defgroup RCCEx_Private_Macros RCCEx Private Macros
  49:C:/Users/vovua/STM32Cube/Repository/STM32Cube_FW_F1_V1.8.4/Drivers/STM32F1xx_HAL_Driver/Src\stm32f1xx_hal_rcc_ex.c ****   * @{
  50:C:/Users/vovua/STM32Cube/Repository/STM32Cube_FW_F1_V1.8.4/Drivers/STM32F1xx_HAL_Driver/Src\stm32f1xx_hal_rcc_ex.c ****   */
  51:C:/Users/vovua/STM32Cube/Repository/STM32Cube_FW_F1_V1.8.4/Drivers/STM32F1xx_HAL_Driver/Src\stm32f1xx_hal_rcc_ex.c **** /**
  52:C:/Users/vovua/STM32Cube/Repository/STM32Cube_FW_F1_V1.8.4/Drivers/STM32F1xx_HAL_Driver/Src\stm32f1xx_hal_rcc_ex.c ****   * @}
  53:C:/Users/vovua/STM32Cube/Repository/STM32Cube_FW_F1_V1.8.4/Drivers/STM32F1xx_HAL_Driver/Src\stm32f1xx_hal_rcc_ex.c ****   */
  54:C:/Users/vovua/STM32Cube/Repository/STM32Cube_FW_F1_V1.8.4/Drivers/STM32F1xx_HAL_Driver/Src\stm32f1xx_hal_rcc_ex.c **** 
  55:C:/Users/vovua/STM32Cube/Repository/STM32Cube_FW_F1_V1.8.4/Drivers/STM32F1xx_HAL_Driver/Src\stm32f1xx_hal_rcc_ex.c **** /* Private variables ---------------------------------------------------------*/
  56:C:/Users/vovua/STM32Cube/Repository/STM32Cube_FW_F1_V1.8.4/Drivers/STM32F1xx_HAL_Driver/Src\stm32f1xx_hal_rcc_ex.c **** /* Private function prototypes -----------------------------------------------*/
  57:C:/Users/vovua/STM32Cube/Repository/STM32Cube_FW_F1_V1.8.4/Drivers/STM32F1xx_HAL_Driver/Src\stm32f1xx_hal_rcc_ex.c **** /* Private functions ---------------------------------------------------------*/
  58:C:/Users/vovua/STM32Cube/Repository/STM32Cube_FW_F1_V1.8.4/Drivers/STM32F1xx_HAL_Driver/Src\stm32f1xx_hal_rcc_ex.c **** 
  59:C:/Users/vovua/STM32Cube/Repository/STM32Cube_FW_F1_V1.8.4/Drivers/STM32F1xx_HAL_Driver/Src\stm32f1xx_hal_rcc_ex.c **** /** @defgroup RCCEx_Exported_Functions RCCEx Exported Functions
  60:C:/Users/vovua/STM32Cube/Repository/STM32Cube_FW_F1_V1.8.4/Drivers/STM32F1xx_HAL_Driver/Src\stm32f1xx_hal_rcc_ex.c ****   * @{
  61:C:/Users/vovua/STM32Cube/Repository/STM32Cube_FW_F1_V1.8.4/Drivers/STM32F1xx_HAL_Driver/Src\stm32f1xx_hal_rcc_ex.c ****   */
  62:C:/Users/vovua/STM32Cube/Repository/STM32Cube_FW_F1_V1.8.4/Drivers/STM32F1xx_HAL_Driver/Src\stm32f1xx_hal_rcc_ex.c **** 
  63:C:/Users/vovua/STM32Cube/Repository/STM32Cube_FW_F1_V1.8.4/Drivers/STM32F1xx_HAL_Driver/Src\stm32f1xx_hal_rcc_ex.c **** /** @defgroup RCCEx_Exported_Functions_Group1 Peripheral Control functions
  64:C:/Users/vovua/STM32Cube/Repository/STM32Cube_FW_F1_V1.8.4/Drivers/STM32F1xx_HAL_Driver/Src\stm32f1xx_hal_rcc_ex.c ****   *  @brief  Extended Peripheral Control functions
  65:C:/Users/vovua/STM32Cube/Repository/STM32Cube_FW_F1_V1.8.4/Drivers/STM32F1xx_HAL_Driver/Src\stm32f1xx_hal_rcc_ex.c ****   *
  66:C:/Users/vovua/STM32Cube/Repository/STM32Cube_FW_F1_V1.8.4/Drivers/STM32F1xx_HAL_Driver/Src\stm32f1xx_hal_rcc_ex.c **** @verbatim
  67:C:/Users/vovua/STM32Cube/Repository/STM32Cube_FW_F1_V1.8.4/Drivers/STM32F1xx_HAL_Driver/Src\stm32f1xx_hal_rcc_ex.c ****  ===============================================================================
  68:C:/Users/vovua/STM32Cube/Repository/STM32Cube_FW_F1_V1.8.4/Drivers/STM32F1xx_HAL_Driver/Src\stm32f1xx_hal_rcc_ex.c ****                 ##### Extended Peripheral Control functions  #####
  69:C:/Users/vovua/STM32Cube/Repository/STM32Cube_FW_F1_V1.8.4/Drivers/STM32F1xx_HAL_Driver/Src\stm32f1xx_hal_rcc_ex.c ****  ===============================================================================
  70:C:/Users/vovua/STM32Cube/Repository/STM32Cube_FW_F1_V1.8.4/Drivers/STM32F1xx_HAL_Driver/Src\stm32f1xx_hal_rcc_ex.c ****     [..]
  71:C:/Users/vovua/STM32Cube/Repository/STM32Cube_FW_F1_V1.8.4/Drivers/STM32F1xx_HAL_Driver/Src\stm32f1xx_hal_rcc_ex.c ****     This subsection provides a set of functions allowing to control the RCC Clocks
  72:C:/Users/vovua/STM32Cube/Repository/STM32Cube_FW_F1_V1.8.4/Drivers/STM32F1xx_HAL_Driver/Src\stm32f1xx_hal_rcc_ex.c ****     frequencies.
  73:C:/Users/vovua/STM32Cube/Repository/STM32Cube_FW_F1_V1.8.4/Drivers/STM32F1xx_HAL_Driver/Src\stm32f1xx_hal_rcc_ex.c ****     [..]
  74:C:/Users/vovua/STM32Cube/Repository/STM32Cube_FW_F1_V1.8.4/Drivers/STM32F1xx_HAL_Driver/Src\stm32f1xx_hal_rcc_ex.c ****     (@) Important note: Care must be taken when HAL_RCCEx_PeriphCLKConfig() is used to
  75:C:/Users/vovua/STM32Cube/Repository/STM32Cube_FW_F1_V1.8.4/Drivers/STM32F1xx_HAL_Driver/Src\stm32f1xx_hal_rcc_ex.c ****         select the RTC clock source; in this case the Backup domain will be reset in
  76:C:/Users/vovua/STM32Cube/Repository/STM32Cube_FW_F1_V1.8.4/Drivers/STM32F1xx_HAL_Driver/Src\stm32f1xx_hal_rcc_ex.c ****         order to modify the RTC Clock source, as consequence RTC registers (including
  77:C:/Users/vovua/STM32Cube/Repository/STM32Cube_FW_F1_V1.8.4/Drivers/STM32F1xx_HAL_Driver/Src\stm32f1xx_hal_rcc_ex.c ****         the backup registers) are set to their reset values.
  78:C:/Users/vovua/STM32Cube/Repository/STM32Cube_FW_F1_V1.8.4/Drivers/STM32F1xx_HAL_Driver/Src\stm32f1xx_hal_rcc_ex.c **** 
  79:C:/Users/vovua/STM32Cube/Repository/STM32Cube_FW_F1_V1.8.4/Drivers/STM32F1xx_HAL_Driver/Src\stm32f1xx_hal_rcc_ex.c **** @endverbatim
  80:C:/Users/vovua/STM32Cube/Repository/STM32Cube_FW_F1_V1.8.4/Drivers/STM32F1xx_HAL_Driver/Src\stm32f1xx_hal_rcc_ex.c ****   * @{
  81:C:/Users/vovua/STM32Cube/Repository/STM32Cube_FW_F1_V1.8.4/Drivers/STM32F1xx_HAL_Driver/Src\stm32f1xx_hal_rcc_ex.c ****   */
  82:C:/Users/vovua/STM32Cube/Repository/STM32Cube_FW_F1_V1.8.4/Drivers/STM32F1xx_HAL_Driver/Src\stm32f1xx_hal_rcc_ex.c **** 
  83:C:/Users/vovua/STM32Cube/Repository/STM32Cube_FW_F1_V1.8.4/Drivers/STM32F1xx_HAL_Driver/Src\stm32f1xx_hal_rcc_ex.c **** /**
  84:C:/Users/vovua/STM32Cube/Repository/STM32Cube_FW_F1_V1.8.4/Drivers/STM32F1xx_HAL_Driver/Src\stm32f1xx_hal_rcc_ex.c ****   * @brief  Initializes the RCC extended peripherals clocks according to the specified parameters i
  85:C:/Users/vovua/STM32Cube/Repository/STM32Cube_FW_F1_V1.8.4/Drivers/STM32F1xx_HAL_Driver/Src\stm32f1xx_hal_rcc_ex.c ****   *         RCC_PeriphCLKInitTypeDef.
  86:C:/Users/vovua/STM32Cube/Repository/STM32Cube_FW_F1_V1.8.4/Drivers/STM32F1xx_HAL_Driver/Src\stm32f1xx_hal_rcc_ex.c ****   * @param  PeriphClkInit pointer to an RCC_PeriphCLKInitTypeDef structure that
  87:C:/Users/vovua/STM32Cube/Repository/STM32Cube_FW_F1_V1.8.4/Drivers/STM32F1xx_HAL_Driver/Src\stm32f1xx_hal_rcc_ex.c ****   *         contains the configuration information for the Extended Peripherals clocks(RTC clock).
  88:C:/Users/vovua/STM32Cube/Repository/STM32Cube_FW_F1_V1.8.4/Drivers/STM32F1xx_HAL_Driver/Src\stm32f1xx_hal_rcc_ex.c ****   *
ARM GAS  C:\Users\vovua\AppData\Local\Temp\ccmOFQ3a.s 			page 3


  89:C:/Users/vovua/STM32Cube/Repository/STM32Cube_FW_F1_V1.8.4/Drivers/STM32F1xx_HAL_Driver/Src\stm32f1xx_hal_rcc_ex.c ****   * @note   Care must be taken when HAL_RCCEx_PeriphCLKConfig() is used to select
  90:C:/Users/vovua/STM32Cube/Repository/STM32Cube_FW_F1_V1.8.4/Drivers/STM32F1xx_HAL_Driver/Src\stm32f1xx_hal_rcc_ex.c ****   *         the RTC clock source; in this case the Backup domain will be reset in
  91:C:/Users/vovua/STM32Cube/Repository/STM32Cube_FW_F1_V1.8.4/Drivers/STM32F1xx_HAL_Driver/Src\stm32f1xx_hal_rcc_ex.c ****   *         order to modify the RTC Clock source, as consequence RTC registers (including
  92:C:/Users/vovua/STM32Cube/Repository/STM32Cube_FW_F1_V1.8.4/Drivers/STM32F1xx_HAL_Driver/Src\stm32f1xx_hal_rcc_ex.c ****   *         the backup registers) are set to their reset values.
  93:C:/Users/vovua/STM32Cube/Repository/STM32Cube_FW_F1_V1.8.4/Drivers/STM32F1xx_HAL_Driver/Src\stm32f1xx_hal_rcc_ex.c ****   *
  94:C:/Users/vovua/STM32Cube/Repository/STM32Cube_FW_F1_V1.8.4/Drivers/STM32F1xx_HAL_Driver/Src\stm32f1xx_hal_rcc_ex.c ****   * @note   In case of STM32F105xC or STM32F107xC devices, PLLI2S will be enabled if requested on
  95:C:/Users/vovua/STM32Cube/Repository/STM32Cube_FW_F1_V1.8.4/Drivers/STM32F1xx_HAL_Driver/Src\stm32f1xx_hal_rcc_ex.c ****   *         one of 2 I2S interfaces. When PLLI2S is enabled, you need to call HAL_RCCEx_DisablePLLI
  96:C:/Users/vovua/STM32Cube/Repository/STM32Cube_FW_F1_V1.8.4/Drivers/STM32F1xx_HAL_Driver/Src\stm32f1xx_hal_rcc_ex.c ****   *         manually disable it.
  97:C:/Users/vovua/STM32Cube/Repository/STM32Cube_FW_F1_V1.8.4/Drivers/STM32F1xx_HAL_Driver/Src\stm32f1xx_hal_rcc_ex.c ****   *
  98:C:/Users/vovua/STM32Cube/Repository/STM32Cube_FW_F1_V1.8.4/Drivers/STM32F1xx_HAL_Driver/Src\stm32f1xx_hal_rcc_ex.c ****   * @retval HAL status
  99:C:/Users/vovua/STM32Cube/Repository/STM32Cube_FW_F1_V1.8.4/Drivers/STM32F1xx_HAL_Driver/Src\stm32f1xx_hal_rcc_ex.c ****   */
 100:C:/Users/vovua/STM32Cube/Repository/STM32Cube_FW_F1_V1.8.4/Drivers/STM32F1xx_HAL_Driver/Src\stm32f1xx_hal_rcc_ex.c **** HAL_StatusTypeDef HAL_RCCEx_PeriphCLKConfig(RCC_PeriphCLKInitTypeDef  *PeriphClkInit)
 101:C:/Users/vovua/STM32Cube/Repository/STM32Cube_FW_F1_V1.8.4/Drivers/STM32F1xx_HAL_Driver/Src\stm32f1xx_hal_rcc_ex.c **** {
  28              		.loc 1 101 1 view -0
  29              		.cfi_startproc
  30              		@ args = 0, pretend = 0, frame = 8
  31              		@ frame_needed = 0, uses_anonymous_args = 0
  32              		.loc 1 101 1 is_stmt 0 view .LVU1
  33 0000 70B5     		push	{r4, r5, r6, lr}
  34              	.LCFI0:
  35              		.cfi_def_cfa_offset 16
  36              		.cfi_offset 4, -16
  37              		.cfi_offset 5, -12
  38              		.cfi_offset 6, -8
  39              		.cfi_offset 14, -4
  40 0002 82B0     		sub	sp, sp, #8
  41              	.LCFI1:
  42              		.cfi_def_cfa_offset 24
  43 0004 0446     		mov	r4, r0
 102:C:/Users/vovua/STM32Cube/Repository/STM32Cube_FW_F1_V1.8.4/Drivers/STM32F1xx_HAL_Driver/Src\stm32f1xx_hal_rcc_ex.c ****   uint32_t tickstart = 0U, temp_reg = 0U;
  44              		.loc 1 102 3 is_stmt 1 view .LVU2
  45              	.LVL1:
 103:C:/Users/vovua/STM32Cube/Repository/STM32Cube_FW_F1_V1.8.4/Drivers/STM32F1xx_HAL_Driver/Src\stm32f1xx_hal_rcc_ex.c **** #if defined(STM32F105xC) || defined(STM32F107xC)
 104:C:/Users/vovua/STM32Cube/Repository/STM32Cube_FW_F1_V1.8.4/Drivers/STM32F1xx_HAL_Driver/Src\stm32f1xx_hal_rcc_ex.c ****   uint32_t  pllactive = 0U;
 105:C:/Users/vovua/STM32Cube/Repository/STM32Cube_FW_F1_V1.8.4/Drivers/STM32F1xx_HAL_Driver/Src\stm32f1xx_hal_rcc_ex.c **** #endif /* STM32F105xC || STM32F107xC */
 106:C:/Users/vovua/STM32Cube/Repository/STM32Cube_FW_F1_V1.8.4/Drivers/STM32F1xx_HAL_Driver/Src\stm32f1xx_hal_rcc_ex.c **** 
 107:C:/Users/vovua/STM32Cube/Repository/STM32Cube_FW_F1_V1.8.4/Drivers/STM32F1xx_HAL_Driver/Src\stm32f1xx_hal_rcc_ex.c ****   /* Check the parameters */
 108:C:/Users/vovua/STM32Cube/Repository/STM32Cube_FW_F1_V1.8.4/Drivers/STM32F1xx_HAL_Driver/Src\stm32f1xx_hal_rcc_ex.c ****   assert_param(IS_RCC_PERIPHCLOCK(PeriphClkInit->PeriphClockSelection));
  46              		.loc 1 108 3 view .LVU3
 109:C:/Users/vovua/STM32Cube/Repository/STM32Cube_FW_F1_V1.8.4/Drivers/STM32F1xx_HAL_Driver/Src\stm32f1xx_hal_rcc_ex.c **** 
 110:C:/Users/vovua/STM32Cube/Repository/STM32Cube_FW_F1_V1.8.4/Drivers/STM32F1xx_HAL_Driver/Src\stm32f1xx_hal_rcc_ex.c ****   /*------------------------------- RTC/LCD Configuration ------------------------*/
 111:C:/Users/vovua/STM32Cube/Repository/STM32Cube_FW_F1_V1.8.4/Drivers/STM32F1xx_HAL_Driver/Src\stm32f1xx_hal_rcc_ex.c ****   if ((((PeriphClkInit->PeriphClockSelection) & RCC_PERIPHCLK_RTC) == RCC_PERIPHCLK_RTC))
  47              		.loc 1 111 3 view .LVU4
  48              		.loc 1 111 23 is_stmt 0 view .LVU5
  49 0006 0368     		ldr	r3, [r0]
  50              		.loc 1 111 6 view .LVU6
  51 0008 13F0010F 		tst	r3, #1
  52 000c 36D0     		beq	.L2
  53              	.LBB2:
 112:C:/Users/vovua/STM32Cube/Repository/STM32Cube_FW_F1_V1.8.4/Drivers/STM32F1xx_HAL_Driver/Src\stm32f1xx_hal_rcc_ex.c ****   {
 113:C:/Users/vovua/STM32Cube/Repository/STM32Cube_FW_F1_V1.8.4/Drivers/STM32F1xx_HAL_Driver/Src\stm32f1xx_hal_rcc_ex.c ****     FlagStatus pwrclkchanged = RESET;
  54              		.loc 1 113 5 is_stmt 1 view .LVU7
  55              	.LVL2:
 114:C:/Users/vovua/STM32Cube/Repository/STM32Cube_FW_F1_V1.8.4/Drivers/STM32F1xx_HAL_Driver/Src\stm32f1xx_hal_rcc_ex.c **** 
 115:C:/Users/vovua/STM32Cube/Repository/STM32Cube_FW_F1_V1.8.4/Drivers/STM32F1xx_HAL_Driver/Src\stm32f1xx_hal_rcc_ex.c ****     /* check for RTC Parameters used to output RTCCLK */
 116:C:/Users/vovua/STM32Cube/Repository/STM32Cube_FW_F1_V1.8.4/Drivers/STM32F1xx_HAL_Driver/Src\stm32f1xx_hal_rcc_ex.c ****     assert_param(IS_RCC_RTCCLKSOURCE(PeriphClkInit->RTCClockSelection));
  56              		.loc 1 116 5 view .LVU8
ARM GAS  C:\Users\vovua\AppData\Local\Temp\ccmOFQ3a.s 			page 4


 117:C:/Users/vovua/STM32Cube/Repository/STM32Cube_FW_F1_V1.8.4/Drivers/STM32F1xx_HAL_Driver/Src\stm32f1xx_hal_rcc_ex.c **** 
 118:C:/Users/vovua/STM32Cube/Repository/STM32Cube_FW_F1_V1.8.4/Drivers/STM32F1xx_HAL_Driver/Src\stm32f1xx_hal_rcc_ex.c ****     /* As soon as function is called to change RTC clock source, activation of the
 119:C:/Users/vovua/STM32Cube/Repository/STM32Cube_FW_F1_V1.8.4/Drivers/STM32F1xx_HAL_Driver/Src\stm32f1xx_hal_rcc_ex.c ****        power domain is done. */
 120:C:/Users/vovua/STM32Cube/Repository/STM32Cube_FW_F1_V1.8.4/Drivers/STM32F1xx_HAL_Driver/Src\stm32f1xx_hal_rcc_ex.c ****     /* Requires to enable write access to Backup Domain of necessary */
 121:C:/Users/vovua/STM32Cube/Repository/STM32Cube_FW_F1_V1.8.4/Drivers/STM32F1xx_HAL_Driver/Src\stm32f1xx_hal_rcc_ex.c ****     if (__HAL_RCC_PWR_IS_CLK_DISABLED())
  57              		.loc 1 121 5 view .LVU9
  58              		.loc 1 121 9 is_stmt 0 view .LVU10
  59 000e 3F4B     		ldr	r3, .L20
  60 0010 DB69     		ldr	r3, [r3, #28]
  61              		.loc 1 121 8 view .LVU11
  62 0012 13F0805F 		tst	r3, #268435456
  63 0016 49D1     		bne	.L12
 122:C:/Users/vovua/STM32Cube/Repository/STM32Cube_FW_F1_V1.8.4/Drivers/STM32F1xx_HAL_Driver/Src\stm32f1xx_hal_rcc_ex.c ****     {
 123:C:/Users/vovua/STM32Cube/Repository/STM32Cube_FW_F1_V1.8.4/Drivers/STM32F1xx_HAL_Driver/Src\stm32f1xx_hal_rcc_ex.c ****       __HAL_RCC_PWR_CLK_ENABLE();
  64              		.loc 1 123 7 is_stmt 1 view .LVU12
  65              	.LBB3:
  66              		.loc 1 123 7 view .LVU13
  67              		.loc 1 123 7 view .LVU14
  68 0018 3C4B     		ldr	r3, .L20
  69 001a DA69     		ldr	r2, [r3, #28]
  70 001c 42F08052 		orr	r2, r2, #268435456
  71 0020 DA61     		str	r2, [r3, #28]
  72              		.loc 1 123 7 view .LVU15
  73 0022 DB69     		ldr	r3, [r3, #28]
  74 0024 03F08053 		and	r3, r3, #268435456
  75 0028 0193     		str	r3, [sp, #4]
  76              		.loc 1 123 7 view .LVU16
  77 002a 019B     		ldr	r3, [sp, #4]
  78              	.LBE3:
  79              		.loc 1 123 7 view .LVU17
 124:C:/Users/vovua/STM32Cube/Repository/STM32Cube_FW_F1_V1.8.4/Drivers/STM32F1xx_HAL_Driver/Src\stm32f1xx_hal_rcc_ex.c ****       pwrclkchanged = SET;
  80              		.loc 1 124 7 view .LVU18
  81              	.LVL3:
  82              		.loc 1 124 21 is_stmt 0 view .LVU19
  83 002c 0125     		movs	r5, #1
  84              	.LVL4:
  85              	.L3:
 125:C:/Users/vovua/STM32Cube/Repository/STM32Cube_FW_F1_V1.8.4/Drivers/STM32F1xx_HAL_Driver/Src\stm32f1xx_hal_rcc_ex.c ****     }
 126:C:/Users/vovua/STM32Cube/Repository/STM32Cube_FW_F1_V1.8.4/Drivers/STM32F1xx_HAL_Driver/Src\stm32f1xx_hal_rcc_ex.c **** 
 127:C:/Users/vovua/STM32Cube/Repository/STM32Cube_FW_F1_V1.8.4/Drivers/STM32F1xx_HAL_Driver/Src\stm32f1xx_hal_rcc_ex.c ****     if (HAL_IS_BIT_CLR(PWR->CR, PWR_CR_DBP))
  86              		.loc 1 127 5 is_stmt 1 view .LVU20
  87              		.loc 1 127 9 is_stmt 0 view .LVU21
  88 002e 384B     		ldr	r3, .L20+4
  89 0030 1B68     		ldr	r3, [r3]
  90              		.loc 1 127 8 view .LVU22
  91 0032 13F4807F 		tst	r3, #256
  92 0036 3BD0     		beq	.L17
  93              	.LVL5:
  94              	.L4:
 128:C:/Users/vovua/STM32Cube/Repository/STM32Cube_FW_F1_V1.8.4/Drivers/STM32F1xx_HAL_Driver/Src\stm32f1xx_hal_rcc_ex.c ****     {
 129:C:/Users/vovua/STM32Cube/Repository/STM32Cube_FW_F1_V1.8.4/Drivers/STM32F1xx_HAL_Driver/Src\stm32f1xx_hal_rcc_ex.c ****       /* Enable write access to Backup domain */
 130:C:/Users/vovua/STM32Cube/Repository/STM32Cube_FW_F1_V1.8.4/Drivers/STM32F1xx_HAL_Driver/Src\stm32f1xx_hal_rcc_ex.c ****       SET_BIT(PWR->CR, PWR_CR_DBP);
 131:C:/Users/vovua/STM32Cube/Repository/STM32Cube_FW_F1_V1.8.4/Drivers/STM32F1xx_HAL_Driver/Src\stm32f1xx_hal_rcc_ex.c **** 
 132:C:/Users/vovua/STM32Cube/Repository/STM32Cube_FW_F1_V1.8.4/Drivers/STM32F1xx_HAL_Driver/Src\stm32f1xx_hal_rcc_ex.c ****       /* Wait for Backup domain Write protection disable */
 133:C:/Users/vovua/STM32Cube/Repository/STM32Cube_FW_F1_V1.8.4/Drivers/STM32F1xx_HAL_Driver/Src\stm32f1xx_hal_rcc_ex.c ****       tickstart = HAL_GetTick();
 134:C:/Users/vovua/STM32Cube/Repository/STM32Cube_FW_F1_V1.8.4/Drivers/STM32F1xx_HAL_Driver/Src\stm32f1xx_hal_rcc_ex.c **** 
 135:C:/Users/vovua/STM32Cube/Repository/STM32Cube_FW_F1_V1.8.4/Drivers/STM32F1xx_HAL_Driver/Src\stm32f1xx_hal_rcc_ex.c ****       while (HAL_IS_BIT_CLR(PWR->CR, PWR_CR_DBP))
ARM GAS  C:\Users\vovua\AppData\Local\Temp\ccmOFQ3a.s 			page 5


 136:C:/Users/vovua/STM32Cube/Repository/STM32Cube_FW_F1_V1.8.4/Drivers/STM32F1xx_HAL_Driver/Src\stm32f1xx_hal_rcc_ex.c ****       {
 137:C:/Users/vovua/STM32Cube/Repository/STM32Cube_FW_F1_V1.8.4/Drivers/STM32F1xx_HAL_Driver/Src\stm32f1xx_hal_rcc_ex.c ****         if ((HAL_GetTick() - tickstart) > RCC_DBP_TIMEOUT_VALUE)
 138:C:/Users/vovua/STM32Cube/Repository/STM32Cube_FW_F1_V1.8.4/Drivers/STM32F1xx_HAL_Driver/Src\stm32f1xx_hal_rcc_ex.c ****         {
 139:C:/Users/vovua/STM32Cube/Repository/STM32Cube_FW_F1_V1.8.4/Drivers/STM32F1xx_HAL_Driver/Src\stm32f1xx_hal_rcc_ex.c ****           return HAL_TIMEOUT;
 140:C:/Users/vovua/STM32Cube/Repository/STM32Cube_FW_F1_V1.8.4/Drivers/STM32F1xx_HAL_Driver/Src\stm32f1xx_hal_rcc_ex.c ****         }
 141:C:/Users/vovua/STM32Cube/Repository/STM32Cube_FW_F1_V1.8.4/Drivers/STM32F1xx_HAL_Driver/Src\stm32f1xx_hal_rcc_ex.c ****       }
 142:C:/Users/vovua/STM32Cube/Repository/STM32Cube_FW_F1_V1.8.4/Drivers/STM32F1xx_HAL_Driver/Src\stm32f1xx_hal_rcc_ex.c ****     }
 143:C:/Users/vovua/STM32Cube/Repository/STM32Cube_FW_F1_V1.8.4/Drivers/STM32F1xx_HAL_Driver/Src\stm32f1xx_hal_rcc_ex.c **** 
 144:C:/Users/vovua/STM32Cube/Repository/STM32Cube_FW_F1_V1.8.4/Drivers/STM32F1xx_HAL_Driver/Src\stm32f1xx_hal_rcc_ex.c ****     /* Reset the Backup domain only if the RTC Clock source selection is modified from reset value 
 145:C:/Users/vovua/STM32Cube/Repository/STM32Cube_FW_F1_V1.8.4/Drivers/STM32F1xx_HAL_Driver/Src\stm32f1xx_hal_rcc_ex.c ****     temp_reg = (RCC->BDCR & RCC_BDCR_RTCSEL);
  95              		.loc 1 145 5 is_stmt 1 view .LVU23
  96              		.loc 1 145 20 is_stmt 0 view .LVU24
  97 0038 344B     		ldr	r3, .L20
  98 003a 1B6A     		ldr	r3, [r3, #32]
  99              	.LVL6:
 146:C:/Users/vovua/STM32Cube/Repository/STM32Cube_FW_F1_V1.8.4/Drivers/STM32F1xx_HAL_Driver/Src\stm32f1xx_hal_rcc_ex.c ****     if ((temp_reg != 0x00000000U) && (temp_reg != (PeriphClkInit->RTCClockSelection & RCC_BDCR_RTCS
 100              		.loc 1 146 5 is_stmt 1 view .LVU25
 101              		.loc 1 146 8 is_stmt 0 view .LVU26
 102 003c 13F44073 		ands	r3, r3, #768
 103              	.LVL7:
 104              		.loc 1 146 8 view .LVU27
 105 0040 13D0     		beq	.L8
 106              		.loc 1 146 65 discriminator 1 view .LVU28
 107 0042 6268     		ldr	r2, [r4, #4]
 108              		.loc 1 146 85 discriminator 1 view .LVU29
 109 0044 02F44072 		and	r2, r2, #768
 110              		.loc 1 146 35 discriminator 1 view .LVU30
 111 0048 9A42     		cmp	r2, r3
 112 004a 0ED0     		beq	.L8
 147:C:/Users/vovua/STM32Cube/Repository/STM32Cube_FW_F1_V1.8.4/Drivers/STM32F1xx_HAL_Driver/Src\stm32f1xx_hal_rcc_ex.c ****     {
 148:C:/Users/vovua/STM32Cube/Repository/STM32Cube_FW_F1_V1.8.4/Drivers/STM32F1xx_HAL_Driver/Src\stm32f1xx_hal_rcc_ex.c ****       /* Store the content of BDCR register before the reset of Backup Domain */
 149:C:/Users/vovua/STM32Cube/Repository/STM32Cube_FW_F1_V1.8.4/Drivers/STM32F1xx_HAL_Driver/Src\stm32f1xx_hal_rcc_ex.c ****       temp_reg = (RCC->BDCR & ~(RCC_BDCR_RTCSEL));
 113              		.loc 1 149 7 is_stmt 1 view .LVU31
 114              		.loc 1 149 22 is_stmt 0 view .LVU32
 115 004c 2F4A     		ldr	r2, .L20
 116 004e 136A     		ldr	r3, [r2, #32]
 117              	.LVL8:
 118              		.loc 1 149 16 view .LVU33
 119 0050 23F44070 		bic	r0, r3, #768
 120              	.LVL9:
 150:C:/Users/vovua/STM32Cube/Repository/STM32Cube_FW_F1_V1.8.4/Drivers/STM32F1xx_HAL_Driver/Src\stm32f1xx_hal_rcc_ex.c ****       /* RTC Clock selection can be changed only if the Backup Domain is reset */
 151:C:/Users/vovua/STM32Cube/Repository/STM32Cube_FW_F1_V1.8.4/Drivers/STM32F1xx_HAL_Driver/Src\stm32f1xx_hal_rcc_ex.c ****       __HAL_RCC_BACKUPRESET_FORCE();
 121              		.loc 1 151 7 is_stmt 1 view .LVU34
 122 0054 2F49     		ldr	r1, .L20+8
 123 0056 0126     		movs	r6, #1
 124 0058 C1F84064 		str	r6, [r1, #1088]
 152:C:/Users/vovua/STM32Cube/Repository/STM32Cube_FW_F1_V1.8.4/Drivers/STM32F1xx_HAL_Driver/Src\stm32f1xx_hal_rcc_ex.c ****       __HAL_RCC_BACKUPRESET_RELEASE();
 125              		.loc 1 152 7 view .LVU35
 126 005c 0026     		movs	r6, #0
 127 005e C1F84064 		str	r6, [r1, #1088]
 153:C:/Users/vovua/STM32Cube/Repository/STM32Cube_FW_F1_V1.8.4/Drivers/STM32F1xx_HAL_Driver/Src\stm32f1xx_hal_rcc_ex.c ****       /* Restore the Content of BDCR register */
 154:C:/Users/vovua/STM32Cube/Repository/STM32Cube_FW_F1_V1.8.4/Drivers/STM32F1xx_HAL_Driver/Src\stm32f1xx_hal_rcc_ex.c ****       RCC->BDCR = temp_reg;
 128              		.loc 1 154 7 view .LVU36
 129              		.loc 1 154 17 is_stmt 0 view .LVU37
 130 0062 1062     		str	r0, [r2, #32]
 155:C:/Users/vovua/STM32Cube/Repository/STM32Cube_FW_F1_V1.8.4/Drivers/STM32F1xx_HAL_Driver/Src\stm32f1xx_hal_rcc_ex.c **** 
 156:C:/Users/vovua/STM32Cube/Repository/STM32Cube_FW_F1_V1.8.4/Drivers/STM32F1xx_HAL_Driver/Src\stm32f1xx_hal_rcc_ex.c ****       /* Wait for LSERDY if LSE was enabled */
ARM GAS  C:\Users\vovua\AppData\Local\Temp\ccmOFQ3a.s 			page 6


 157:C:/Users/vovua/STM32Cube/Repository/STM32Cube_FW_F1_V1.8.4/Drivers/STM32F1xx_HAL_Driver/Src\stm32f1xx_hal_rcc_ex.c ****       if (HAL_IS_BIT_SET(temp_reg, RCC_BDCR_LSEON))
 131              		.loc 1 157 7 is_stmt 1 view .LVU38
 132              		.loc 1 157 10 is_stmt 0 view .LVU39
 133 0064 13F0010F 		tst	r3, #1
 134 0068 36D1     		bne	.L18
 135              	.LVL10:
 136              	.L8:
 158:C:/Users/vovua/STM32Cube/Repository/STM32Cube_FW_F1_V1.8.4/Drivers/STM32F1xx_HAL_Driver/Src\stm32f1xx_hal_rcc_ex.c ****       {
 159:C:/Users/vovua/STM32Cube/Repository/STM32Cube_FW_F1_V1.8.4/Drivers/STM32F1xx_HAL_Driver/Src\stm32f1xx_hal_rcc_ex.c ****         /* Get Start Tick */
 160:C:/Users/vovua/STM32Cube/Repository/STM32Cube_FW_F1_V1.8.4/Drivers/STM32F1xx_HAL_Driver/Src\stm32f1xx_hal_rcc_ex.c ****         tickstart = HAL_GetTick();
 161:C:/Users/vovua/STM32Cube/Repository/STM32Cube_FW_F1_V1.8.4/Drivers/STM32F1xx_HAL_Driver/Src\stm32f1xx_hal_rcc_ex.c **** 
 162:C:/Users/vovua/STM32Cube/Repository/STM32Cube_FW_F1_V1.8.4/Drivers/STM32F1xx_HAL_Driver/Src\stm32f1xx_hal_rcc_ex.c ****         /* Wait till LSE is ready */
 163:C:/Users/vovua/STM32Cube/Repository/STM32Cube_FW_F1_V1.8.4/Drivers/STM32F1xx_HAL_Driver/Src\stm32f1xx_hal_rcc_ex.c ****         while (__HAL_RCC_GET_FLAG(RCC_FLAG_LSERDY) == RESET)
 164:C:/Users/vovua/STM32Cube/Repository/STM32Cube_FW_F1_V1.8.4/Drivers/STM32F1xx_HAL_Driver/Src\stm32f1xx_hal_rcc_ex.c ****         {
 165:C:/Users/vovua/STM32Cube/Repository/STM32Cube_FW_F1_V1.8.4/Drivers/STM32F1xx_HAL_Driver/Src\stm32f1xx_hal_rcc_ex.c ****           if ((HAL_GetTick() - tickstart) > RCC_LSE_TIMEOUT_VALUE)
 166:C:/Users/vovua/STM32Cube/Repository/STM32Cube_FW_F1_V1.8.4/Drivers/STM32F1xx_HAL_Driver/Src\stm32f1xx_hal_rcc_ex.c ****           {
 167:C:/Users/vovua/STM32Cube/Repository/STM32Cube_FW_F1_V1.8.4/Drivers/STM32F1xx_HAL_Driver/Src\stm32f1xx_hal_rcc_ex.c ****             return HAL_TIMEOUT;
 168:C:/Users/vovua/STM32Cube/Repository/STM32Cube_FW_F1_V1.8.4/Drivers/STM32F1xx_HAL_Driver/Src\stm32f1xx_hal_rcc_ex.c ****           }
 169:C:/Users/vovua/STM32Cube/Repository/STM32Cube_FW_F1_V1.8.4/Drivers/STM32F1xx_HAL_Driver/Src\stm32f1xx_hal_rcc_ex.c ****         }
 170:C:/Users/vovua/STM32Cube/Repository/STM32Cube_FW_F1_V1.8.4/Drivers/STM32F1xx_HAL_Driver/Src\stm32f1xx_hal_rcc_ex.c ****       }
 171:C:/Users/vovua/STM32Cube/Repository/STM32Cube_FW_F1_V1.8.4/Drivers/STM32F1xx_HAL_Driver/Src\stm32f1xx_hal_rcc_ex.c ****     }
 172:C:/Users/vovua/STM32Cube/Repository/STM32Cube_FW_F1_V1.8.4/Drivers/STM32F1xx_HAL_Driver/Src\stm32f1xx_hal_rcc_ex.c ****     __HAL_RCC_RTC_CONFIG(PeriphClkInit->RTCClockSelection);
 137              		.loc 1 172 5 is_stmt 1 view .LVU40
 138 006a 284A     		ldr	r2, .L20
 139 006c 136A     		ldr	r3, [r2, #32]
 140 006e 23F44073 		bic	r3, r3, #768
 141 0072 6168     		ldr	r1, [r4, #4]
 142 0074 0B43     		orrs	r3, r3, r1
 143 0076 1362     		str	r3, [r2, #32]
 173:C:/Users/vovua/STM32Cube/Repository/STM32Cube_FW_F1_V1.8.4/Drivers/STM32F1xx_HAL_Driver/Src\stm32f1xx_hal_rcc_ex.c **** 
 174:C:/Users/vovua/STM32Cube/Repository/STM32Cube_FW_F1_V1.8.4/Drivers/STM32F1xx_HAL_Driver/Src\stm32f1xx_hal_rcc_ex.c ****     /* Require to disable power clock if necessary */
 175:C:/Users/vovua/STM32Cube/Repository/STM32Cube_FW_F1_V1.8.4/Drivers/STM32F1xx_HAL_Driver/Src\stm32f1xx_hal_rcc_ex.c ****     if (pwrclkchanged == SET)
 144              		.loc 1 175 5 view .LVU41
 145              		.loc 1 175 8 is_stmt 0 view .LVU42
 146 0078 002D     		cmp	r5, #0
 147 007a 3ED1     		bne	.L19
 148              	.LVL11:
 149              	.L2:
 150              		.loc 1 175 8 view .LVU43
 151              	.LBE2:
 176:C:/Users/vovua/STM32Cube/Repository/STM32Cube_FW_F1_V1.8.4/Drivers/STM32F1xx_HAL_Driver/Src\stm32f1xx_hal_rcc_ex.c ****     {
 177:C:/Users/vovua/STM32Cube/Repository/STM32Cube_FW_F1_V1.8.4/Drivers/STM32F1xx_HAL_Driver/Src\stm32f1xx_hal_rcc_ex.c ****       __HAL_RCC_PWR_CLK_DISABLE();
 178:C:/Users/vovua/STM32Cube/Repository/STM32Cube_FW_F1_V1.8.4/Drivers/STM32F1xx_HAL_Driver/Src\stm32f1xx_hal_rcc_ex.c ****     }
 179:C:/Users/vovua/STM32Cube/Repository/STM32Cube_FW_F1_V1.8.4/Drivers/STM32F1xx_HAL_Driver/Src\stm32f1xx_hal_rcc_ex.c ****   }
 180:C:/Users/vovua/STM32Cube/Repository/STM32Cube_FW_F1_V1.8.4/Drivers/STM32F1xx_HAL_Driver/Src\stm32f1xx_hal_rcc_ex.c **** 
 181:C:/Users/vovua/STM32Cube/Repository/STM32Cube_FW_F1_V1.8.4/Drivers/STM32F1xx_HAL_Driver/Src\stm32f1xx_hal_rcc_ex.c ****   /*------------------------------ ADC clock Configuration ------------------*/
 182:C:/Users/vovua/STM32Cube/Repository/STM32Cube_FW_F1_V1.8.4/Drivers/STM32F1xx_HAL_Driver/Src\stm32f1xx_hal_rcc_ex.c ****   if (((PeriphClkInit->PeriphClockSelection) & RCC_PERIPHCLK_ADC) == RCC_PERIPHCLK_ADC)
 152              		.loc 1 182 3 is_stmt 1 view .LVU44
 153              		.loc 1 182 22 is_stmt 0 view .LVU45
 154 007c 2368     		ldr	r3, [r4]
 155              		.loc 1 182 6 view .LVU46
 156 007e 13F0020F 		tst	r3, #2
 157 0082 06D0     		beq	.L11
 183:C:/Users/vovua/STM32Cube/Repository/STM32Cube_FW_F1_V1.8.4/Drivers/STM32F1xx_HAL_Driver/Src\stm32f1xx_hal_rcc_ex.c ****   {
 184:C:/Users/vovua/STM32Cube/Repository/STM32Cube_FW_F1_V1.8.4/Drivers/STM32F1xx_HAL_Driver/Src\stm32f1xx_hal_rcc_ex.c ****     /* Check the parameters */
 185:C:/Users/vovua/STM32Cube/Repository/STM32Cube_FW_F1_V1.8.4/Drivers/STM32F1xx_HAL_Driver/Src\stm32f1xx_hal_rcc_ex.c ****     assert_param(IS_RCC_ADCPLLCLK_DIV(PeriphClkInit->AdcClockSelection));
 158              		.loc 1 185 5 is_stmt 1 view .LVU47
ARM GAS  C:\Users\vovua\AppData\Local\Temp\ccmOFQ3a.s 			page 7


 186:C:/Users/vovua/STM32Cube/Repository/STM32Cube_FW_F1_V1.8.4/Drivers/STM32F1xx_HAL_Driver/Src\stm32f1xx_hal_rcc_ex.c **** 
 187:C:/Users/vovua/STM32Cube/Repository/STM32Cube_FW_F1_V1.8.4/Drivers/STM32F1xx_HAL_Driver/Src\stm32f1xx_hal_rcc_ex.c ****     /* Configure the ADC clock source */
 188:C:/Users/vovua/STM32Cube/Repository/STM32Cube_FW_F1_V1.8.4/Drivers/STM32F1xx_HAL_Driver/Src\stm32f1xx_hal_rcc_ex.c ****     __HAL_RCC_ADC_CONFIG(PeriphClkInit->AdcClockSelection);
 159              		.loc 1 188 5 view .LVU48
 160 0084 214A     		ldr	r2, .L20
 161 0086 5368     		ldr	r3, [r2, #4]
 162 0088 23F44043 		bic	r3, r3, #49152
 163 008c A168     		ldr	r1, [r4, #8]
 164 008e 0B43     		orrs	r3, r3, r1
 165 0090 5360     		str	r3, [r2, #4]
 166              	.L11:
 189:C:/Users/vovua/STM32Cube/Repository/STM32Cube_FW_F1_V1.8.4/Drivers/STM32F1xx_HAL_Driver/Src\stm32f1xx_hal_rcc_ex.c ****   }
 190:C:/Users/vovua/STM32Cube/Repository/STM32Cube_FW_F1_V1.8.4/Drivers/STM32F1xx_HAL_Driver/Src\stm32f1xx_hal_rcc_ex.c **** 
 191:C:/Users/vovua/STM32Cube/Repository/STM32Cube_FW_F1_V1.8.4/Drivers/STM32F1xx_HAL_Driver/Src\stm32f1xx_hal_rcc_ex.c **** #if defined(STM32F105xC) || defined(STM32F107xC)
 192:C:/Users/vovua/STM32Cube/Repository/STM32Cube_FW_F1_V1.8.4/Drivers/STM32F1xx_HAL_Driver/Src\stm32f1xx_hal_rcc_ex.c ****   /*------------------------------ I2S2 Configuration ------------------------*/
 193:C:/Users/vovua/STM32Cube/Repository/STM32Cube_FW_F1_V1.8.4/Drivers/STM32F1xx_HAL_Driver/Src\stm32f1xx_hal_rcc_ex.c ****   if (((PeriphClkInit->PeriphClockSelection) & RCC_PERIPHCLK_I2S2) == RCC_PERIPHCLK_I2S2)
 194:C:/Users/vovua/STM32Cube/Repository/STM32Cube_FW_F1_V1.8.4/Drivers/STM32F1xx_HAL_Driver/Src\stm32f1xx_hal_rcc_ex.c ****   {
 195:C:/Users/vovua/STM32Cube/Repository/STM32Cube_FW_F1_V1.8.4/Drivers/STM32F1xx_HAL_Driver/Src\stm32f1xx_hal_rcc_ex.c ****     /* Check the parameters */
 196:C:/Users/vovua/STM32Cube/Repository/STM32Cube_FW_F1_V1.8.4/Drivers/STM32F1xx_HAL_Driver/Src\stm32f1xx_hal_rcc_ex.c ****     assert_param(IS_RCC_I2S2CLKSOURCE(PeriphClkInit->I2s2ClockSelection));
 197:C:/Users/vovua/STM32Cube/Repository/STM32Cube_FW_F1_V1.8.4/Drivers/STM32F1xx_HAL_Driver/Src\stm32f1xx_hal_rcc_ex.c **** 
 198:C:/Users/vovua/STM32Cube/Repository/STM32Cube_FW_F1_V1.8.4/Drivers/STM32F1xx_HAL_Driver/Src\stm32f1xx_hal_rcc_ex.c ****     /* Configure the I2S2 clock source */
 199:C:/Users/vovua/STM32Cube/Repository/STM32Cube_FW_F1_V1.8.4/Drivers/STM32F1xx_HAL_Driver/Src\stm32f1xx_hal_rcc_ex.c ****     __HAL_RCC_I2S2_CONFIG(PeriphClkInit->I2s2ClockSelection);
 200:C:/Users/vovua/STM32Cube/Repository/STM32Cube_FW_F1_V1.8.4/Drivers/STM32F1xx_HAL_Driver/Src\stm32f1xx_hal_rcc_ex.c ****   }
 201:C:/Users/vovua/STM32Cube/Repository/STM32Cube_FW_F1_V1.8.4/Drivers/STM32F1xx_HAL_Driver/Src\stm32f1xx_hal_rcc_ex.c **** 
 202:C:/Users/vovua/STM32Cube/Repository/STM32Cube_FW_F1_V1.8.4/Drivers/STM32F1xx_HAL_Driver/Src\stm32f1xx_hal_rcc_ex.c ****   /*------------------------------ I2S3 Configuration ------------------------*/
 203:C:/Users/vovua/STM32Cube/Repository/STM32Cube_FW_F1_V1.8.4/Drivers/STM32F1xx_HAL_Driver/Src\stm32f1xx_hal_rcc_ex.c ****   if (((PeriphClkInit->PeriphClockSelection) & RCC_PERIPHCLK_I2S3) == RCC_PERIPHCLK_I2S3)
 204:C:/Users/vovua/STM32Cube/Repository/STM32Cube_FW_F1_V1.8.4/Drivers/STM32F1xx_HAL_Driver/Src\stm32f1xx_hal_rcc_ex.c ****   {
 205:C:/Users/vovua/STM32Cube/Repository/STM32Cube_FW_F1_V1.8.4/Drivers/STM32F1xx_HAL_Driver/Src\stm32f1xx_hal_rcc_ex.c ****     /* Check the parameters */
 206:C:/Users/vovua/STM32Cube/Repository/STM32Cube_FW_F1_V1.8.4/Drivers/STM32F1xx_HAL_Driver/Src\stm32f1xx_hal_rcc_ex.c ****     assert_param(IS_RCC_I2S3CLKSOURCE(PeriphClkInit->I2s3ClockSelection));
 207:C:/Users/vovua/STM32Cube/Repository/STM32Cube_FW_F1_V1.8.4/Drivers/STM32F1xx_HAL_Driver/Src\stm32f1xx_hal_rcc_ex.c **** 
 208:C:/Users/vovua/STM32Cube/Repository/STM32Cube_FW_F1_V1.8.4/Drivers/STM32F1xx_HAL_Driver/Src\stm32f1xx_hal_rcc_ex.c ****     /* Configure the I2S3 clock source */
 209:C:/Users/vovua/STM32Cube/Repository/STM32Cube_FW_F1_V1.8.4/Drivers/STM32F1xx_HAL_Driver/Src\stm32f1xx_hal_rcc_ex.c ****     __HAL_RCC_I2S3_CONFIG(PeriphClkInit->I2s3ClockSelection);
 210:C:/Users/vovua/STM32Cube/Repository/STM32Cube_FW_F1_V1.8.4/Drivers/STM32F1xx_HAL_Driver/Src\stm32f1xx_hal_rcc_ex.c ****   }
 211:C:/Users/vovua/STM32Cube/Repository/STM32Cube_FW_F1_V1.8.4/Drivers/STM32F1xx_HAL_Driver/Src\stm32f1xx_hal_rcc_ex.c **** 
 212:C:/Users/vovua/STM32Cube/Repository/STM32Cube_FW_F1_V1.8.4/Drivers/STM32F1xx_HAL_Driver/Src\stm32f1xx_hal_rcc_ex.c ****   /*------------------------------ PLL I2S Configuration ----------------------*/
 213:C:/Users/vovua/STM32Cube/Repository/STM32Cube_FW_F1_V1.8.4/Drivers/STM32F1xx_HAL_Driver/Src\stm32f1xx_hal_rcc_ex.c ****   /* Check that PLLI2S need to be enabled */
 214:C:/Users/vovua/STM32Cube/Repository/STM32Cube_FW_F1_V1.8.4/Drivers/STM32F1xx_HAL_Driver/Src\stm32f1xx_hal_rcc_ex.c ****   if (HAL_IS_BIT_SET(RCC->CFGR2, RCC_CFGR2_I2S2SRC) || HAL_IS_BIT_SET(RCC->CFGR2, RCC_CFGR2_I2S3SRC
 215:C:/Users/vovua/STM32Cube/Repository/STM32Cube_FW_F1_V1.8.4/Drivers/STM32F1xx_HAL_Driver/Src\stm32f1xx_hal_rcc_ex.c ****   {
 216:C:/Users/vovua/STM32Cube/Repository/STM32Cube_FW_F1_V1.8.4/Drivers/STM32F1xx_HAL_Driver/Src\stm32f1xx_hal_rcc_ex.c ****     /* Update flag to indicate that PLL I2S should be active */
 217:C:/Users/vovua/STM32Cube/Repository/STM32Cube_FW_F1_V1.8.4/Drivers/STM32F1xx_HAL_Driver/Src\stm32f1xx_hal_rcc_ex.c ****     pllactive = 1;
 218:C:/Users/vovua/STM32Cube/Repository/STM32Cube_FW_F1_V1.8.4/Drivers/STM32F1xx_HAL_Driver/Src\stm32f1xx_hal_rcc_ex.c ****   }
 219:C:/Users/vovua/STM32Cube/Repository/STM32Cube_FW_F1_V1.8.4/Drivers/STM32F1xx_HAL_Driver/Src\stm32f1xx_hal_rcc_ex.c **** 
 220:C:/Users/vovua/STM32Cube/Repository/STM32Cube_FW_F1_V1.8.4/Drivers/STM32F1xx_HAL_Driver/Src\stm32f1xx_hal_rcc_ex.c ****   /* Check if PLL I2S need to be enabled */
 221:C:/Users/vovua/STM32Cube/Repository/STM32Cube_FW_F1_V1.8.4/Drivers/STM32F1xx_HAL_Driver/Src\stm32f1xx_hal_rcc_ex.c ****   if (pllactive == 1)
 222:C:/Users/vovua/STM32Cube/Repository/STM32Cube_FW_F1_V1.8.4/Drivers/STM32F1xx_HAL_Driver/Src\stm32f1xx_hal_rcc_ex.c ****   {
 223:C:/Users/vovua/STM32Cube/Repository/STM32Cube_FW_F1_V1.8.4/Drivers/STM32F1xx_HAL_Driver/Src\stm32f1xx_hal_rcc_ex.c ****     /* Enable PLL I2S only if not active */
 224:C:/Users/vovua/STM32Cube/Repository/STM32Cube_FW_F1_V1.8.4/Drivers/STM32F1xx_HAL_Driver/Src\stm32f1xx_hal_rcc_ex.c ****     if (HAL_IS_BIT_CLR(RCC->CR, RCC_CR_PLL3ON))
 225:C:/Users/vovua/STM32Cube/Repository/STM32Cube_FW_F1_V1.8.4/Drivers/STM32F1xx_HAL_Driver/Src\stm32f1xx_hal_rcc_ex.c ****     {
 226:C:/Users/vovua/STM32Cube/Repository/STM32Cube_FW_F1_V1.8.4/Drivers/STM32F1xx_HAL_Driver/Src\stm32f1xx_hal_rcc_ex.c ****       /* Check the parameters */
 227:C:/Users/vovua/STM32Cube/Repository/STM32Cube_FW_F1_V1.8.4/Drivers/STM32F1xx_HAL_Driver/Src\stm32f1xx_hal_rcc_ex.c ****       assert_param(IS_RCC_PLLI2S_MUL(PeriphClkInit->PLLI2S.PLLI2SMUL));
 228:C:/Users/vovua/STM32Cube/Repository/STM32Cube_FW_F1_V1.8.4/Drivers/STM32F1xx_HAL_Driver/Src\stm32f1xx_hal_rcc_ex.c ****       assert_param(IS_RCC_HSE_PREDIV2(PeriphClkInit->PLLI2S.HSEPrediv2Value));
 229:C:/Users/vovua/STM32Cube/Repository/STM32Cube_FW_F1_V1.8.4/Drivers/STM32F1xx_HAL_Driver/Src\stm32f1xx_hal_rcc_ex.c **** 
 230:C:/Users/vovua/STM32Cube/Repository/STM32Cube_FW_F1_V1.8.4/Drivers/STM32F1xx_HAL_Driver/Src\stm32f1xx_hal_rcc_ex.c ****       /* Prediv2 can be written only when the PLL2 is disabled. */
 231:C:/Users/vovua/STM32Cube/Repository/STM32Cube_FW_F1_V1.8.4/Drivers/STM32F1xx_HAL_Driver/Src\stm32f1xx_hal_rcc_ex.c ****       /* Return an error only if new value is different from the programmed value */
 232:C:/Users/vovua/STM32Cube/Repository/STM32Cube_FW_F1_V1.8.4/Drivers/STM32F1xx_HAL_Driver/Src\stm32f1xx_hal_rcc_ex.c ****       if (HAL_IS_BIT_SET(RCC->CR, RCC_CR_PLL2ON) && \
 233:C:/Users/vovua/STM32Cube/Repository/STM32Cube_FW_F1_V1.8.4/Drivers/STM32F1xx_HAL_Driver/Src\stm32f1xx_hal_rcc_ex.c ****           (__HAL_RCC_HSE_GET_PREDIV2() != PeriphClkInit->PLLI2S.HSEPrediv2Value))
 234:C:/Users/vovua/STM32Cube/Repository/STM32Cube_FW_F1_V1.8.4/Drivers/STM32F1xx_HAL_Driver/Src\stm32f1xx_hal_rcc_ex.c ****       {
ARM GAS  C:\Users\vovua\AppData\Local\Temp\ccmOFQ3a.s 			page 8


 235:C:/Users/vovua/STM32Cube/Repository/STM32Cube_FW_F1_V1.8.4/Drivers/STM32F1xx_HAL_Driver/Src\stm32f1xx_hal_rcc_ex.c ****         return HAL_ERROR;
 236:C:/Users/vovua/STM32Cube/Repository/STM32Cube_FW_F1_V1.8.4/Drivers/STM32F1xx_HAL_Driver/Src\stm32f1xx_hal_rcc_ex.c ****       }
 237:C:/Users/vovua/STM32Cube/Repository/STM32Cube_FW_F1_V1.8.4/Drivers/STM32F1xx_HAL_Driver/Src\stm32f1xx_hal_rcc_ex.c **** 
 238:C:/Users/vovua/STM32Cube/Repository/STM32Cube_FW_F1_V1.8.4/Drivers/STM32F1xx_HAL_Driver/Src\stm32f1xx_hal_rcc_ex.c ****       /* Configure the HSE prediv2 factor --------------------------------*/
 239:C:/Users/vovua/STM32Cube/Repository/STM32Cube_FW_F1_V1.8.4/Drivers/STM32F1xx_HAL_Driver/Src\stm32f1xx_hal_rcc_ex.c ****       __HAL_RCC_HSE_PREDIV2_CONFIG(PeriphClkInit->PLLI2S.HSEPrediv2Value);
 240:C:/Users/vovua/STM32Cube/Repository/STM32Cube_FW_F1_V1.8.4/Drivers/STM32F1xx_HAL_Driver/Src\stm32f1xx_hal_rcc_ex.c **** 
 241:C:/Users/vovua/STM32Cube/Repository/STM32Cube_FW_F1_V1.8.4/Drivers/STM32F1xx_HAL_Driver/Src\stm32f1xx_hal_rcc_ex.c ****       /* Configure the main PLLI2S multiplication factors. */
 242:C:/Users/vovua/STM32Cube/Repository/STM32Cube_FW_F1_V1.8.4/Drivers/STM32F1xx_HAL_Driver/Src\stm32f1xx_hal_rcc_ex.c ****       __HAL_RCC_PLLI2S_CONFIG(PeriphClkInit->PLLI2S.PLLI2SMUL);
 243:C:/Users/vovua/STM32Cube/Repository/STM32Cube_FW_F1_V1.8.4/Drivers/STM32F1xx_HAL_Driver/Src\stm32f1xx_hal_rcc_ex.c **** 
 244:C:/Users/vovua/STM32Cube/Repository/STM32Cube_FW_F1_V1.8.4/Drivers/STM32F1xx_HAL_Driver/Src\stm32f1xx_hal_rcc_ex.c ****       /* Enable the main PLLI2S. */
 245:C:/Users/vovua/STM32Cube/Repository/STM32Cube_FW_F1_V1.8.4/Drivers/STM32F1xx_HAL_Driver/Src\stm32f1xx_hal_rcc_ex.c ****       __HAL_RCC_PLLI2S_ENABLE();
 246:C:/Users/vovua/STM32Cube/Repository/STM32Cube_FW_F1_V1.8.4/Drivers/STM32F1xx_HAL_Driver/Src\stm32f1xx_hal_rcc_ex.c **** 
 247:C:/Users/vovua/STM32Cube/Repository/STM32Cube_FW_F1_V1.8.4/Drivers/STM32F1xx_HAL_Driver/Src\stm32f1xx_hal_rcc_ex.c ****       /* Get Start Tick*/
 248:C:/Users/vovua/STM32Cube/Repository/STM32Cube_FW_F1_V1.8.4/Drivers/STM32F1xx_HAL_Driver/Src\stm32f1xx_hal_rcc_ex.c ****       tickstart = HAL_GetTick();
 249:C:/Users/vovua/STM32Cube/Repository/STM32Cube_FW_F1_V1.8.4/Drivers/STM32F1xx_HAL_Driver/Src\stm32f1xx_hal_rcc_ex.c **** 
 250:C:/Users/vovua/STM32Cube/Repository/STM32Cube_FW_F1_V1.8.4/Drivers/STM32F1xx_HAL_Driver/Src\stm32f1xx_hal_rcc_ex.c ****       /* Wait till PLLI2S is ready */
 251:C:/Users/vovua/STM32Cube/Repository/STM32Cube_FW_F1_V1.8.4/Drivers/STM32F1xx_HAL_Driver/Src\stm32f1xx_hal_rcc_ex.c ****       while (__HAL_RCC_GET_FLAG(RCC_FLAG_PLLI2SRDY)  == RESET)
 252:C:/Users/vovua/STM32Cube/Repository/STM32Cube_FW_F1_V1.8.4/Drivers/STM32F1xx_HAL_Driver/Src\stm32f1xx_hal_rcc_ex.c ****       {
 253:C:/Users/vovua/STM32Cube/Repository/STM32Cube_FW_F1_V1.8.4/Drivers/STM32F1xx_HAL_Driver/Src\stm32f1xx_hal_rcc_ex.c ****         if ((HAL_GetTick() - tickstart) > PLLI2S_TIMEOUT_VALUE)
 254:C:/Users/vovua/STM32Cube/Repository/STM32Cube_FW_F1_V1.8.4/Drivers/STM32F1xx_HAL_Driver/Src\stm32f1xx_hal_rcc_ex.c ****         {
 255:C:/Users/vovua/STM32Cube/Repository/STM32Cube_FW_F1_V1.8.4/Drivers/STM32F1xx_HAL_Driver/Src\stm32f1xx_hal_rcc_ex.c ****           return HAL_TIMEOUT;
 256:C:/Users/vovua/STM32Cube/Repository/STM32Cube_FW_F1_V1.8.4/Drivers/STM32F1xx_HAL_Driver/Src\stm32f1xx_hal_rcc_ex.c ****         }
 257:C:/Users/vovua/STM32Cube/Repository/STM32Cube_FW_F1_V1.8.4/Drivers/STM32F1xx_HAL_Driver/Src\stm32f1xx_hal_rcc_ex.c ****       }
 258:C:/Users/vovua/STM32Cube/Repository/STM32Cube_FW_F1_V1.8.4/Drivers/STM32F1xx_HAL_Driver/Src\stm32f1xx_hal_rcc_ex.c ****     }
 259:C:/Users/vovua/STM32Cube/Repository/STM32Cube_FW_F1_V1.8.4/Drivers/STM32F1xx_HAL_Driver/Src\stm32f1xx_hal_rcc_ex.c ****     else
 260:C:/Users/vovua/STM32Cube/Repository/STM32Cube_FW_F1_V1.8.4/Drivers/STM32F1xx_HAL_Driver/Src\stm32f1xx_hal_rcc_ex.c ****     {
 261:C:/Users/vovua/STM32Cube/Repository/STM32Cube_FW_F1_V1.8.4/Drivers/STM32F1xx_HAL_Driver/Src\stm32f1xx_hal_rcc_ex.c ****       /* Return an error only if user wants to change the PLLI2SMUL whereas PLLI2S is active */
 262:C:/Users/vovua/STM32Cube/Repository/STM32Cube_FW_F1_V1.8.4/Drivers/STM32F1xx_HAL_Driver/Src\stm32f1xx_hal_rcc_ex.c ****       if (READ_BIT(RCC->CFGR2, RCC_CFGR2_PLL3MUL) != PeriphClkInit->PLLI2S.PLLI2SMUL)
 263:C:/Users/vovua/STM32Cube/Repository/STM32Cube_FW_F1_V1.8.4/Drivers/STM32F1xx_HAL_Driver/Src\stm32f1xx_hal_rcc_ex.c ****       {
 264:C:/Users/vovua/STM32Cube/Repository/STM32Cube_FW_F1_V1.8.4/Drivers/STM32F1xx_HAL_Driver/Src\stm32f1xx_hal_rcc_ex.c ****         return HAL_ERROR;
 265:C:/Users/vovua/STM32Cube/Repository/STM32Cube_FW_F1_V1.8.4/Drivers/STM32F1xx_HAL_Driver/Src\stm32f1xx_hal_rcc_ex.c ****       }
 266:C:/Users/vovua/STM32Cube/Repository/STM32Cube_FW_F1_V1.8.4/Drivers/STM32F1xx_HAL_Driver/Src\stm32f1xx_hal_rcc_ex.c ****     }
 267:C:/Users/vovua/STM32Cube/Repository/STM32Cube_FW_F1_V1.8.4/Drivers/STM32F1xx_HAL_Driver/Src\stm32f1xx_hal_rcc_ex.c ****   }
 268:C:/Users/vovua/STM32Cube/Repository/STM32Cube_FW_F1_V1.8.4/Drivers/STM32F1xx_HAL_Driver/Src\stm32f1xx_hal_rcc_ex.c **** #endif /* STM32F105xC || STM32F107xC */
 269:C:/Users/vovua/STM32Cube/Repository/STM32Cube_FW_F1_V1.8.4/Drivers/STM32F1xx_HAL_Driver/Src\stm32f1xx_hal_rcc_ex.c **** 
 270:C:/Users/vovua/STM32Cube/Repository/STM32Cube_FW_F1_V1.8.4/Drivers/STM32F1xx_HAL_Driver/Src\stm32f1xx_hal_rcc_ex.c **** #if defined(STM32F102x6) || defined(STM32F102xB) || defined(STM32F103x6)\
 271:C:/Users/vovua/STM32Cube/Repository/STM32Cube_FW_F1_V1.8.4/Drivers/STM32F1xx_HAL_Driver/Src\stm32f1xx_hal_rcc_ex.c ****  || defined(STM32F103xB) || defined(STM32F103xE) || defined(STM32F103xG)\
 272:C:/Users/vovua/STM32Cube/Repository/STM32Cube_FW_F1_V1.8.4/Drivers/STM32F1xx_HAL_Driver/Src\stm32f1xx_hal_rcc_ex.c ****  || defined(STM32F105xC) || defined(STM32F107xC)
 273:C:/Users/vovua/STM32Cube/Repository/STM32Cube_FW_F1_V1.8.4/Drivers/STM32F1xx_HAL_Driver/Src\stm32f1xx_hal_rcc_ex.c ****   /*------------------------------ USB clock Configuration ------------------*/
 274:C:/Users/vovua/STM32Cube/Repository/STM32Cube_FW_F1_V1.8.4/Drivers/STM32F1xx_HAL_Driver/Src\stm32f1xx_hal_rcc_ex.c ****   if (((PeriphClkInit->PeriphClockSelection) & RCC_PERIPHCLK_USB) == RCC_PERIPHCLK_USB)
 167              		.loc 1 274 3 view .LVU49
 168              		.loc 1 274 22 is_stmt 0 view .LVU50
 169 0092 2368     		ldr	r3, [r4]
 170              		.loc 1 274 6 view .LVU51
 171 0094 13F0100F 		tst	r3, #16
 172 0098 34D0     		beq	.L15
 275:C:/Users/vovua/STM32Cube/Repository/STM32Cube_FW_F1_V1.8.4/Drivers/STM32F1xx_HAL_Driver/Src\stm32f1xx_hal_rcc_ex.c ****   {
 276:C:/Users/vovua/STM32Cube/Repository/STM32Cube_FW_F1_V1.8.4/Drivers/STM32F1xx_HAL_Driver/Src\stm32f1xx_hal_rcc_ex.c ****     /* Check the parameters */
 277:C:/Users/vovua/STM32Cube/Repository/STM32Cube_FW_F1_V1.8.4/Drivers/STM32F1xx_HAL_Driver/Src\stm32f1xx_hal_rcc_ex.c ****     assert_param(IS_RCC_USBPLLCLK_DIV(PeriphClkInit->UsbClockSelection));
 173              		.loc 1 277 5 is_stmt 1 view .LVU52
 278:C:/Users/vovua/STM32Cube/Repository/STM32Cube_FW_F1_V1.8.4/Drivers/STM32F1xx_HAL_Driver/Src\stm32f1xx_hal_rcc_ex.c **** 
 279:C:/Users/vovua/STM32Cube/Repository/STM32Cube_FW_F1_V1.8.4/Drivers/STM32F1xx_HAL_Driver/Src\stm32f1xx_hal_rcc_ex.c ****     /* Configure the USB clock source */
 280:C:/Users/vovua/STM32Cube/Repository/STM32Cube_FW_F1_V1.8.4/Drivers/STM32F1xx_HAL_Driver/Src\stm32f1xx_hal_rcc_ex.c ****     __HAL_RCC_USB_CONFIG(PeriphClkInit->UsbClockSelection);
 174              		.loc 1 280 5 view .LVU53
 175 009a 1C4A     		ldr	r2, .L20
 176 009c 5368     		ldr	r3, [r2, #4]
 177 009e 23F48003 		bic	r3, r3, #4194304
ARM GAS  C:\Users\vovua\AppData\Local\Temp\ccmOFQ3a.s 			page 9


 178 00a2 E168     		ldr	r1, [r4, #12]
 179 00a4 0B43     		orrs	r3, r3, r1
 180 00a6 5360     		str	r3, [r2, #4]
 281:C:/Users/vovua/STM32Cube/Repository/STM32Cube_FW_F1_V1.8.4/Drivers/STM32F1xx_HAL_Driver/Src\stm32f1xx_hal_rcc_ex.c ****   }
 282:C:/Users/vovua/STM32Cube/Repository/STM32Cube_FW_F1_V1.8.4/Drivers/STM32F1xx_HAL_Driver/Src\stm32f1xx_hal_rcc_ex.c **** #endif /* STM32F102x6 || STM32F102xB || STM32F103x6 || STM32F103xB || STM32F103xE || STM32F103xG ||
 283:C:/Users/vovua/STM32Cube/Repository/STM32Cube_FW_F1_V1.8.4/Drivers/STM32F1xx_HAL_Driver/Src\stm32f1xx_hal_rcc_ex.c **** 
 284:C:/Users/vovua/STM32Cube/Repository/STM32Cube_FW_F1_V1.8.4/Drivers/STM32F1xx_HAL_Driver/Src\stm32f1xx_hal_rcc_ex.c ****   return HAL_OK;
 181              		.loc 1 284 10 is_stmt 0 view .LVU54
 182 00a8 0020     		movs	r0, #0
 183 00aa 2CE0     		b	.L6
 184              	.LVL12:
 185              	.L12:
 186              	.LBB4:
 113:C:/Users/vovua/STM32Cube/Repository/STM32Cube_FW_F1_V1.8.4/Drivers/STM32F1xx_HAL_Driver/Src\stm32f1xx_hal_rcc_ex.c **** 
 187              		.loc 1 113 16 view .LVU55
 188 00ac 0025     		movs	r5, #0
 189 00ae BEE7     		b	.L3
 190              	.LVL13:
 191              	.L17:
 130:C:/Users/vovua/STM32Cube/Repository/STM32Cube_FW_F1_V1.8.4/Drivers/STM32F1xx_HAL_Driver/Src\stm32f1xx_hal_rcc_ex.c **** 
 192              		.loc 1 130 7 is_stmt 1 view .LVU56
 193 00b0 174A     		ldr	r2, .L20+4
 194 00b2 1368     		ldr	r3, [r2]
 195 00b4 43F48073 		orr	r3, r3, #256
 196 00b8 1360     		str	r3, [r2]
 133:C:/Users/vovua/STM32Cube/Repository/STM32Cube_FW_F1_V1.8.4/Drivers/STM32F1xx_HAL_Driver/Src\stm32f1xx_hal_rcc_ex.c **** 
 197              		.loc 1 133 7 view .LVU57
 133:C:/Users/vovua/STM32Cube/Repository/STM32Cube_FW_F1_V1.8.4/Drivers/STM32F1xx_HAL_Driver/Src\stm32f1xx_hal_rcc_ex.c **** 
 198              		.loc 1 133 19 is_stmt 0 view .LVU58
 199 00ba FFF7FEFF 		bl	HAL_GetTick
 200              	.LVL14:
 133:C:/Users/vovua/STM32Cube/Repository/STM32Cube_FW_F1_V1.8.4/Drivers/STM32F1xx_HAL_Driver/Src\stm32f1xx_hal_rcc_ex.c **** 
 201              		.loc 1 133 19 view .LVU59
 202 00be 0646     		mov	r6, r0
 203              	.LVL15:
 135:C:/Users/vovua/STM32Cube/Repository/STM32Cube_FW_F1_V1.8.4/Drivers/STM32F1xx_HAL_Driver/Src\stm32f1xx_hal_rcc_ex.c ****       {
 204              		.loc 1 135 7 is_stmt 1 view .LVU60
 205              	.L5:
 135:C:/Users/vovua/STM32Cube/Repository/STM32Cube_FW_F1_V1.8.4/Drivers/STM32F1xx_HAL_Driver/Src\stm32f1xx_hal_rcc_ex.c ****       {
 206              		.loc 1 135 14 view .LVU61
 207 00c0 134B     		ldr	r3, .L20+4
 208 00c2 1B68     		ldr	r3, [r3]
 209 00c4 13F4807F 		tst	r3, #256
 210 00c8 B6D1     		bne	.L4
 137:C:/Users/vovua/STM32Cube/Repository/STM32Cube_FW_F1_V1.8.4/Drivers/STM32F1xx_HAL_Driver/Src\stm32f1xx_hal_rcc_ex.c ****         {
 211              		.loc 1 137 9 view .LVU62
 137:C:/Users/vovua/STM32Cube/Repository/STM32Cube_FW_F1_V1.8.4/Drivers/STM32F1xx_HAL_Driver/Src\stm32f1xx_hal_rcc_ex.c ****         {
 212              		.loc 1 137 14 is_stmt 0 view .LVU63
 213 00ca FFF7FEFF 		bl	HAL_GetTick
 214              	.LVL16:
 137:C:/Users/vovua/STM32Cube/Repository/STM32Cube_FW_F1_V1.8.4/Drivers/STM32F1xx_HAL_Driver/Src\stm32f1xx_hal_rcc_ex.c ****         {
 215              		.loc 1 137 28 view .LVU64
 216 00ce 801B     		subs	r0, r0, r6
 137:C:/Users/vovua/STM32Cube/Repository/STM32Cube_FW_F1_V1.8.4/Drivers/STM32F1xx_HAL_Driver/Src\stm32f1xx_hal_rcc_ex.c ****         {
 217              		.loc 1 137 12 view .LVU65
 218 00d0 6428     		cmp	r0, #100
 219 00d2 F5D9     		bls	.L5
ARM GAS  C:\Users\vovua\AppData\Local\Temp\ccmOFQ3a.s 			page 10


 139:C:/Users/vovua/STM32Cube/Repository/STM32Cube_FW_F1_V1.8.4/Drivers/STM32F1xx_HAL_Driver/Src\stm32f1xx_hal_rcc_ex.c ****         }
 220              		.loc 1 139 18 view .LVU66
 221 00d4 0320     		movs	r0, #3
 222 00d6 16E0     		b	.L6
 223              	.LVL17:
 224              	.L18:
 160:C:/Users/vovua/STM32Cube/Repository/STM32Cube_FW_F1_V1.8.4/Drivers/STM32F1xx_HAL_Driver/Src\stm32f1xx_hal_rcc_ex.c **** 
 225              		.loc 1 160 9 is_stmt 1 view .LVU67
 160:C:/Users/vovua/STM32Cube/Repository/STM32Cube_FW_F1_V1.8.4/Drivers/STM32F1xx_HAL_Driver/Src\stm32f1xx_hal_rcc_ex.c **** 
 226              		.loc 1 160 21 is_stmt 0 view .LVU68
 227 00d8 FFF7FEFF 		bl	HAL_GetTick
 228              	.LVL18:
 160:C:/Users/vovua/STM32Cube/Repository/STM32Cube_FW_F1_V1.8.4/Drivers/STM32F1xx_HAL_Driver/Src\stm32f1xx_hal_rcc_ex.c **** 
 229              		.loc 1 160 21 view .LVU69
 230 00dc 0646     		mov	r6, r0
 231              	.LVL19:
 163:C:/Users/vovua/STM32Cube/Repository/STM32Cube_FW_F1_V1.8.4/Drivers/STM32F1xx_HAL_Driver/Src\stm32f1xx_hal_rcc_ex.c ****         {
 232              		.loc 1 163 9 is_stmt 1 view .LVU70
 233              	.L9:
 163:C:/Users/vovua/STM32Cube/Repository/STM32Cube_FW_F1_V1.8.4/Drivers/STM32F1xx_HAL_Driver/Src\stm32f1xx_hal_rcc_ex.c ****         {
 234              		.loc 1 163 52 view .LVU71
 163:C:/Users/vovua/STM32Cube/Repository/STM32Cube_FW_F1_V1.8.4/Drivers/STM32F1xx_HAL_Driver/Src\stm32f1xx_hal_rcc_ex.c ****         {
 235              		.loc 1 163 16 is_stmt 0 view .LVU72
 236 00de 0B4B     		ldr	r3, .L20
 237 00e0 1B6A     		ldr	r3, [r3, #32]
 163:C:/Users/vovua/STM32Cube/Repository/STM32Cube_FW_F1_V1.8.4/Drivers/STM32F1xx_HAL_Driver/Src\stm32f1xx_hal_rcc_ex.c ****         {
 238              		.loc 1 163 52 view .LVU73
 239 00e2 13F0020F 		tst	r3, #2
 240 00e6 C0D1     		bne	.L8
 165:C:/Users/vovua/STM32Cube/Repository/STM32Cube_FW_F1_V1.8.4/Drivers/STM32F1xx_HAL_Driver/Src\stm32f1xx_hal_rcc_ex.c ****           {
 241              		.loc 1 165 11 is_stmt 1 view .LVU74
 165:C:/Users/vovua/STM32Cube/Repository/STM32Cube_FW_F1_V1.8.4/Drivers/STM32F1xx_HAL_Driver/Src\stm32f1xx_hal_rcc_ex.c ****           {
 242              		.loc 1 165 16 is_stmt 0 view .LVU75
 243 00e8 FFF7FEFF 		bl	HAL_GetTick
 244              	.LVL20:
 165:C:/Users/vovua/STM32Cube/Repository/STM32Cube_FW_F1_V1.8.4/Drivers/STM32F1xx_HAL_Driver/Src\stm32f1xx_hal_rcc_ex.c ****           {
 245              		.loc 1 165 30 view .LVU76
 246 00ec 801B     		subs	r0, r0, r6
 165:C:/Users/vovua/STM32Cube/Repository/STM32Cube_FW_F1_V1.8.4/Drivers/STM32F1xx_HAL_Driver/Src\stm32f1xx_hal_rcc_ex.c ****           {
 247              		.loc 1 165 14 view .LVU77
 248 00ee 41F28833 		movw	r3, #5000
 249 00f2 9842     		cmp	r0, r3
 250 00f4 F3D9     		bls	.L9
 167:C:/Users/vovua/STM32Cube/Repository/STM32Cube_FW_F1_V1.8.4/Drivers/STM32F1xx_HAL_Driver/Src\stm32f1xx_hal_rcc_ex.c ****           }
 251              		.loc 1 167 20 view .LVU78
 252 00f6 0320     		movs	r0, #3
 253 00f8 05E0     		b	.L6
 254              	.LVL21:
 255              	.L19:
 177:C:/Users/vovua/STM32Cube/Repository/STM32Cube_FW_F1_V1.8.4/Drivers/STM32F1xx_HAL_Driver/Src\stm32f1xx_hal_rcc_ex.c ****     }
 256              		.loc 1 177 7 is_stmt 1 view .LVU79
 257 00fa D369     		ldr	r3, [r2, #28]
 258 00fc 23F08053 		bic	r3, r3, #268435456
 259 0100 D361     		str	r3, [r2, #28]
 260 0102 BBE7     		b	.L2
 261              	.LVL22:
 262              	.L15:
ARM GAS  C:\Users\vovua\AppData\Local\Temp\ccmOFQ3a.s 			page 11


 177:C:/Users/vovua/STM32Cube/Repository/STM32Cube_FW_F1_V1.8.4/Drivers/STM32F1xx_HAL_Driver/Src\stm32f1xx_hal_rcc_ex.c ****     }
 263              		.loc 1 177 7 is_stmt 0 view .LVU80
 264              	.LBE4:
 265              		.loc 1 284 10 view .LVU81
 266 0104 0020     		movs	r0, #0
 267              	.L6:
 285:C:/Users/vovua/STM32Cube/Repository/STM32Cube_FW_F1_V1.8.4/Drivers/STM32F1xx_HAL_Driver/Src\stm32f1xx_hal_rcc_ex.c **** }
 268              		.loc 1 285 1 view .LVU82
 269 0106 02B0     		add	sp, sp, #8
 270              	.LCFI2:
 271              		.cfi_def_cfa_offset 16
 272              		@ sp needed
 273 0108 70BD     		pop	{r4, r5, r6, pc}
 274              	.LVL23:
 275              	.L21:
 276              		.loc 1 285 1 view .LVU83
 277 010a 00BF     		.align	2
 278              	.L20:
 279 010c 00100240 		.word	1073876992
 280 0110 00700040 		.word	1073770496
 281 0114 00004242 		.word	1111621632
 282              		.cfi_endproc
 283              	.LFE65:
 285              		.section	.text.HAL_RCCEx_GetPeriphCLKConfig,"ax",%progbits
 286              		.align	1
 287              		.global	HAL_RCCEx_GetPeriphCLKConfig
 288              		.syntax unified
 289              		.thumb
 290              		.thumb_func
 292              	HAL_RCCEx_GetPeriphCLKConfig:
 293              	.LVL24:
 294              	.LFB66:
 286:C:/Users/vovua/STM32Cube/Repository/STM32Cube_FW_F1_V1.8.4/Drivers/STM32F1xx_HAL_Driver/Src\stm32f1xx_hal_rcc_ex.c **** 
 287:C:/Users/vovua/STM32Cube/Repository/STM32Cube_FW_F1_V1.8.4/Drivers/STM32F1xx_HAL_Driver/Src\stm32f1xx_hal_rcc_ex.c **** /**
 288:C:/Users/vovua/STM32Cube/Repository/STM32Cube_FW_F1_V1.8.4/Drivers/STM32F1xx_HAL_Driver/Src\stm32f1xx_hal_rcc_ex.c ****   * @brief  Get the PeriphClkInit according to the internal
 289:C:/Users/vovua/STM32Cube/Repository/STM32Cube_FW_F1_V1.8.4/Drivers/STM32F1xx_HAL_Driver/Src\stm32f1xx_hal_rcc_ex.c ****   * RCC configuration registers.
 290:C:/Users/vovua/STM32Cube/Repository/STM32Cube_FW_F1_V1.8.4/Drivers/STM32F1xx_HAL_Driver/Src\stm32f1xx_hal_rcc_ex.c ****   * @param  PeriphClkInit pointer to an RCC_PeriphCLKInitTypeDef structure that
 291:C:/Users/vovua/STM32Cube/Repository/STM32Cube_FW_F1_V1.8.4/Drivers/STM32F1xx_HAL_Driver/Src\stm32f1xx_hal_rcc_ex.c ****   *         returns the configuration information for the Extended Peripherals clocks(RTC, I2S, ADC
 292:C:/Users/vovua/STM32Cube/Repository/STM32Cube_FW_F1_V1.8.4/Drivers/STM32F1xx_HAL_Driver/Src\stm32f1xx_hal_rcc_ex.c ****   * @retval None
 293:C:/Users/vovua/STM32Cube/Repository/STM32Cube_FW_F1_V1.8.4/Drivers/STM32F1xx_HAL_Driver/Src\stm32f1xx_hal_rcc_ex.c ****   */
 294:C:/Users/vovua/STM32Cube/Repository/STM32Cube_FW_F1_V1.8.4/Drivers/STM32F1xx_HAL_Driver/Src\stm32f1xx_hal_rcc_ex.c **** void HAL_RCCEx_GetPeriphCLKConfig(RCC_PeriphCLKInitTypeDef  *PeriphClkInit)
 295:C:/Users/vovua/STM32Cube/Repository/STM32Cube_FW_F1_V1.8.4/Drivers/STM32F1xx_HAL_Driver/Src\stm32f1xx_hal_rcc_ex.c **** {
 295              		.loc 1 295 1 is_stmt 1 view -0
 296              		.cfi_startproc
 297              		@ args = 0, pretend = 0, frame = 0
 298              		@ frame_needed = 0, uses_anonymous_args = 0
 299              		@ link register save eliminated.
 296:C:/Users/vovua/STM32Cube/Repository/STM32Cube_FW_F1_V1.8.4/Drivers/STM32F1xx_HAL_Driver/Src\stm32f1xx_hal_rcc_ex.c ****   uint32_t srcclk = 0U;
 300              		.loc 1 296 3 view .LVU85
 297:C:/Users/vovua/STM32Cube/Repository/STM32Cube_FW_F1_V1.8.4/Drivers/STM32F1xx_HAL_Driver/Src\stm32f1xx_hal_rcc_ex.c **** 
 298:C:/Users/vovua/STM32Cube/Repository/STM32Cube_FW_F1_V1.8.4/Drivers/STM32F1xx_HAL_Driver/Src\stm32f1xx_hal_rcc_ex.c ****   /* Set all possible values for the extended clock type parameter------------*/
 299:C:/Users/vovua/STM32Cube/Repository/STM32Cube_FW_F1_V1.8.4/Drivers/STM32F1xx_HAL_Driver/Src\stm32f1xx_hal_rcc_ex.c ****   PeriphClkInit->PeriphClockSelection = RCC_PERIPHCLK_RTC;
 301              		.loc 1 299 3 view .LVU86
 302              		.loc 1 299 39 is_stmt 0 view .LVU87
 303 0000 0123     		movs	r3, #1
 304 0002 0360     		str	r3, [r0]
 300:C:/Users/vovua/STM32Cube/Repository/STM32Cube_FW_F1_V1.8.4/Drivers/STM32F1xx_HAL_Driver/Src\stm32f1xx_hal_rcc_ex.c **** 
ARM GAS  C:\Users\vovua\AppData\Local\Temp\ccmOFQ3a.s 			page 12


 301:C:/Users/vovua/STM32Cube/Repository/STM32Cube_FW_F1_V1.8.4/Drivers/STM32F1xx_HAL_Driver/Src\stm32f1xx_hal_rcc_ex.c ****   /* Get the RTC configuration -----------------------------------------------*/
 302:C:/Users/vovua/STM32Cube/Repository/STM32Cube_FW_F1_V1.8.4/Drivers/STM32F1xx_HAL_Driver/Src\stm32f1xx_hal_rcc_ex.c ****   srcclk = __HAL_RCC_GET_RTC_SOURCE();
 305              		.loc 1 302 3 is_stmt 1 view .LVU88
 306              		.loc 1 302 12 is_stmt 0 view .LVU89
 307 0004 084B     		ldr	r3, .L23
 308 0006 1A6A     		ldr	r2, [r3, #32]
 309              		.loc 1 302 10 view .LVU90
 310 0008 02F44072 		and	r2, r2, #768
 311              	.LVL25:
 303:C:/Users/vovua/STM32Cube/Repository/STM32Cube_FW_F1_V1.8.4/Drivers/STM32F1xx_HAL_Driver/Src\stm32f1xx_hal_rcc_ex.c ****   /* Source clock is LSE or LSI*/
 304:C:/Users/vovua/STM32Cube/Repository/STM32Cube_FW_F1_V1.8.4/Drivers/STM32F1xx_HAL_Driver/Src\stm32f1xx_hal_rcc_ex.c ****   PeriphClkInit->RTCClockSelection = srcclk;
 312              		.loc 1 304 3 is_stmt 1 view .LVU91
 313              		.loc 1 304 36 is_stmt 0 view .LVU92
 314 000c 4260     		str	r2, [r0, #4]
 305:C:/Users/vovua/STM32Cube/Repository/STM32Cube_FW_F1_V1.8.4/Drivers/STM32F1xx_HAL_Driver/Src\stm32f1xx_hal_rcc_ex.c **** 
 306:C:/Users/vovua/STM32Cube/Repository/STM32Cube_FW_F1_V1.8.4/Drivers/STM32F1xx_HAL_Driver/Src\stm32f1xx_hal_rcc_ex.c ****   /* Get the ADC clock configuration -----------------------------------------*/
 307:C:/Users/vovua/STM32Cube/Repository/STM32Cube_FW_F1_V1.8.4/Drivers/STM32F1xx_HAL_Driver/Src\stm32f1xx_hal_rcc_ex.c ****   PeriphClkInit->PeriphClockSelection |= RCC_PERIPHCLK_ADC;
 315              		.loc 1 307 3 is_stmt 1 view .LVU93
 316              		.loc 1 307 39 is_stmt 0 view .LVU94
 317 000e 0322     		movs	r2, #3
 318              	.LVL26:
 319              		.loc 1 307 39 view .LVU95
 320 0010 0260     		str	r2, [r0]
 308:C:/Users/vovua/STM32Cube/Repository/STM32Cube_FW_F1_V1.8.4/Drivers/STM32F1xx_HAL_Driver/Src\stm32f1xx_hal_rcc_ex.c ****   PeriphClkInit->AdcClockSelection = __HAL_RCC_GET_ADC_SOURCE();
 321              		.loc 1 308 3 is_stmt 1 view .LVU96
 322              		.loc 1 308 38 is_stmt 0 view .LVU97
 323 0012 5A68     		ldr	r2, [r3, #4]
 324 0014 02F44042 		and	r2, r2, #49152
 325              		.loc 1 308 36 view .LVU98
 326 0018 8260     		str	r2, [r0, #8]
 309:C:/Users/vovua/STM32Cube/Repository/STM32Cube_FW_F1_V1.8.4/Drivers/STM32F1xx_HAL_Driver/Src\stm32f1xx_hal_rcc_ex.c **** 
 310:C:/Users/vovua/STM32Cube/Repository/STM32Cube_FW_F1_V1.8.4/Drivers/STM32F1xx_HAL_Driver/Src\stm32f1xx_hal_rcc_ex.c **** #if defined(STM32F105xC) || defined(STM32F107xC)
 311:C:/Users/vovua/STM32Cube/Repository/STM32Cube_FW_F1_V1.8.4/Drivers/STM32F1xx_HAL_Driver/Src\stm32f1xx_hal_rcc_ex.c ****   /* Get the I2S2 clock configuration -----------------------------------------*/
 312:C:/Users/vovua/STM32Cube/Repository/STM32Cube_FW_F1_V1.8.4/Drivers/STM32F1xx_HAL_Driver/Src\stm32f1xx_hal_rcc_ex.c ****   PeriphClkInit->PeriphClockSelection |= RCC_PERIPHCLK_I2S2;
 313:C:/Users/vovua/STM32Cube/Repository/STM32Cube_FW_F1_V1.8.4/Drivers/STM32F1xx_HAL_Driver/Src\stm32f1xx_hal_rcc_ex.c ****   PeriphClkInit->I2s2ClockSelection = __HAL_RCC_GET_I2S2_SOURCE();
 314:C:/Users/vovua/STM32Cube/Repository/STM32Cube_FW_F1_V1.8.4/Drivers/STM32F1xx_HAL_Driver/Src\stm32f1xx_hal_rcc_ex.c **** 
 315:C:/Users/vovua/STM32Cube/Repository/STM32Cube_FW_F1_V1.8.4/Drivers/STM32F1xx_HAL_Driver/Src\stm32f1xx_hal_rcc_ex.c ****   /* Get the I2S3 clock configuration -----------------------------------------*/
 316:C:/Users/vovua/STM32Cube/Repository/STM32Cube_FW_F1_V1.8.4/Drivers/STM32F1xx_HAL_Driver/Src\stm32f1xx_hal_rcc_ex.c ****   PeriphClkInit->PeriphClockSelection |= RCC_PERIPHCLK_I2S3;
 317:C:/Users/vovua/STM32Cube/Repository/STM32Cube_FW_F1_V1.8.4/Drivers/STM32F1xx_HAL_Driver/Src\stm32f1xx_hal_rcc_ex.c ****   PeriphClkInit->I2s3ClockSelection = __HAL_RCC_GET_I2S3_SOURCE();
 318:C:/Users/vovua/STM32Cube/Repository/STM32Cube_FW_F1_V1.8.4/Drivers/STM32F1xx_HAL_Driver/Src\stm32f1xx_hal_rcc_ex.c **** 
 319:C:/Users/vovua/STM32Cube/Repository/STM32Cube_FW_F1_V1.8.4/Drivers/STM32F1xx_HAL_Driver/Src\stm32f1xx_hal_rcc_ex.c **** #endif /* STM32F105xC || STM32F107xC */
 320:C:/Users/vovua/STM32Cube/Repository/STM32Cube_FW_F1_V1.8.4/Drivers/STM32F1xx_HAL_Driver/Src\stm32f1xx_hal_rcc_ex.c **** 
 321:C:/Users/vovua/STM32Cube/Repository/STM32Cube_FW_F1_V1.8.4/Drivers/STM32F1xx_HAL_Driver/Src\stm32f1xx_hal_rcc_ex.c **** #if defined(STM32F103xE) || defined(STM32F103xG)
 322:C:/Users/vovua/STM32Cube/Repository/STM32Cube_FW_F1_V1.8.4/Drivers/STM32F1xx_HAL_Driver/Src\stm32f1xx_hal_rcc_ex.c ****   /* Get the I2S2 clock configuration -----------------------------------------*/
 323:C:/Users/vovua/STM32Cube/Repository/STM32Cube_FW_F1_V1.8.4/Drivers/STM32F1xx_HAL_Driver/Src\stm32f1xx_hal_rcc_ex.c ****   PeriphClkInit->PeriphClockSelection |= RCC_PERIPHCLK_I2S2;
 324:C:/Users/vovua/STM32Cube/Repository/STM32Cube_FW_F1_V1.8.4/Drivers/STM32F1xx_HAL_Driver/Src\stm32f1xx_hal_rcc_ex.c ****   PeriphClkInit->I2s2ClockSelection = RCC_I2S2CLKSOURCE_SYSCLK;
 325:C:/Users/vovua/STM32Cube/Repository/STM32Cube_FW_F1_V1.8.4/Drivers/STM32F1xx_HAL_Driver/Src\stm32f1xx_hal_rcc_ex.c **** 
 326:C:/Users/vovua/STM32Cube/Repository/STM32Cube_FW_F1_V1.8.4/Drivers/STM32F1xx_HAL_Driver/Src\stm32f1xx_hal_rcc_ex.c ****   /* Get the I2S3 clock configuration -----------------------------------------*/
 327:C:/Users/vovua/STM32Cube/Repository/STM32Cube_FW_F1_V1.8.4/Drivers/STM32F1xx_HAL_Driver/Src\stm32f1xx_hal_rcc_ex.c ****   PeriphClkInit->PeriphClockSelection |= RCC_PERIPHCLK_I2S3;
 328:C:/Users/vovua/STM32Cube/Repository/STM32Cube_FW_F1_V1.8.4/Drivers/STM32F1xx_HAL_Driver/Src\stm32f1xx_hal_rcc_ex.c ****   PeriphClkInit->I2s3ClockSelection = RCC_I2S3CLKSOURCE_SYSCLK;
 329:C:/Users/vovua/STM32Cube/Repository/STM32Cube_FW_F1_V1.8.4/Drivers/STM32F1xx_HAL_Driver/Src\stm32f1xx_hal_rcc_ex.c **** 
 330:C:/Users/vovua/STM32Cube/Repository/STM32Cube_FW_F1_V1.8.4/Drivers/STM32F1xx_HAL_Driver/Src\stm32f1xx_hal_rcc_ex.c **** #endif /* STM32F103xE || STM32F103xG */
 331:C:/Users/vovua/STM32Cube/Repository/STM32Cube_FW_F1_V1.8.4/Drivers/STM32F1xx_HAL_Driver/Src\stm32f1xx_hal_rcc_ex.c **** 
 332:C:/Users/vovua/STM32Cube/Repository/STM32Cube_FW_F1_V1.8.4/Drivers/STM32F1xx_HAL_Driver/Src\stm32f1xx_hal_rcc_ex.c **** #if defined(STM32F102x6) || defined(STM32F102xB) || defined(STM32F103x6)\
 333:C:/Users/vovua/STM32Cube/Repository/STM32Cube_FW_F1_V1.8.4/Drivers/STM32F1xx_HAL_Driver/Src\stm32f1xx_hal_rcc_ex.c ****  || defined(STM32F103xB) || defined(STM32F103xE) || defined(STM32F103xG)\
 334:C:/Users/vovua/STM32Cube/Repository/STM32Cube_FW_F1_V1.8.4/Drivers/STM32F1xx_HAL_Driver/Src\stm32f1xx_hal_rcc_ex.c ****  || defined(STM32F105xC) || defined(STM32F107xC)
 335:C:/Users/vovua/STM32Cube/Repository/STM32Cube_FW_F1_V1.8.4/Drivers/STM32F1xx_HAL_Driver/Src\stm32f1xx_hal_rcc_ex.c ****   /* Get the USB clock configuration -----------------------------------------*/
ARM GAS  C:\Users\vovua\AppData\Local\Temp\ccmOFQ3a.s 			page 13


 336:C:/Users/vovua/STM32Cube/Repository/STM32Cube_FW_F1_V1.8.4/Drivers/STM32F1xx_HAL_Driver/Src\stm32f1xx_hal_rcc_ex.c ****   PeriphClkInit->PeriphClockSelection |= RCC_PERIPHCLK_USB;
 327              		.loc 1 336 3 is_stmt 1 view .LVU99
 328              		.loc 1 336 39 is_stmt 0 view .LVU100
 329 001a 1322     		movs	r2, #19
 330 001c 0260     		str	r2, [r0]
 337:C:/Users/vovua/STM32Cube/Repository/STM32Cube_FW_F1_V1.8.4/Drivers/STM32F1xx_HAL_Driver/Src\stm32f1xx_hal_rcc_ex.c ****   PeriphClkInit->UsbClockSelection = __HAL_RCC_GET_USB_SOURCE();
 331              		.loc 1 337 3 is_stmt 1 view .LVU101
 332              		.loc 1 337 38 is_stmt 0 view .LVU102
 333 001e 5B68     		ldr	r3, [r3, #4]
 334 0020 03F48003 		and	r3, r3, #4194304
 335              		.loc 1 337 36 view .LVU103
 336 0024 C360     		str	r3, [r0, #12]
 338:C:/Users/vovua/STM32Cube/Repository/STM32Cube_FW_F1_V1.8.4/Drivers/STM32F1xx_HAL_Driver/Src\stm32f1xx_hal_rcc_ex.c **** #endif /* STM32F102x6 || STM32F102xB || STM32F103x6 || STM32F103xB || STM32F103xE || STM32F103xG ||
 339:C:/Users/vovua/STM32Cube/Repository/STM32Cube_FW_F1_V1.8.4/Drivers/STM32F1xx_HAL_Driver/Src\stm32f1xx_hal_rcc_ex.c **** }
 337              		.loc 1 339 1 view .LVU104
 338 0026 7047     		bx	lr
 339              	.L24:
 340              		.align	2
 341              	.L23:
 342 0028 00100240 		.word	1073876992
 343              		.cfi_endproc
 344              	.LFE66:
 346              		.section	.rodata.HAL_RCCEx_GetPeriphCLKFreq.str1.4,"aMS",%progbits,1
 347              		.align	2
 348              	.LC0:
 349 0000 02030405 		.ascii	"\002\003\004\005\006\007\010\011\012\013\014\015\016"
 349      06070809 
 349      0A0B0C0D 
 349      0E
 350 000d 0F101000 		.ascii	"\017\020\020\000"
 351              		.section	.text.HAL_RCCEx_GetPeriphCLKFreq,"ax",%progbits
 352              		.align	1
 353              		.global	HAL_RCCEx_GetPeriphCLKFreq
 354              		.syntax unified
 355              		.thumb
 356              		.thumb_func
 358              	HAL_RCCEx_GetPeriphCLKFreq:
 359              	.LVL27:
 360              	.LFB67:
 340:C:/Users/vovua/STM32Cube/Repository/STM32Cube_FW_F1_V1.8.4/Drivers/STM32F1xx_HAL_Driver/Src\stm32f1xx_hal_rcc_ex.c **** 
 341:C:/Users/vovua/STM32Cube/Repository/STM32Cube_FW_F1_V1.8.4/Drivers/STM32F1xx_HAL_Driver/Src\stm32f1xx_hal_rcc_ex.c **** /**
 342:C:/Users/vovua/STM32Cube/Repository/STM32Cube_FW_F1_V1.8.4/Drivers/STM32F1xx_HAL_Driver/Src\stm32f1xx_hal_rcc_ex.c ****   * @brief  Returns the peripheral clock frequency
 343:C:/Users/vovua/STM32Cube/Repository/STM32Cube_FW_F1_V1.8.4/Drivers/STM32F1xx_HAL_Driver/Src\stm32f1xx_hal_rcc_ex.c ****   * @note   Returns 0 if peripheral clock is unknown
 344:C:/Users/vovua/STM32Cube/Repository/STM32Cube_FW_F1_V1.8.4/Drivers/STM32F1xx_HAL_Driver/Src\stm32f1xx_hal_rcc_ex.c ****   * @param  PeriphClk Peripheral clock identifier
 345:C:/Users/vovua/STM32Cube/Repository/STM32Cube_FW_F1_V1.8.4/Drivers/STM32F1xx_HAL_Driver/Src\stm32f1xx_hal_rcc_ex.c ****   *         This parameter can be one of the following values:
 346:C:/Users/vovua/STM32Cube/Repository/STM32Cube_FW_F1_V1.8.4/Drivers/STM32F1xx_HAL_Driver/Src\stm32f1xx_hal_rcc_ex.c ****   *            @arg @ref RCC_PERIPHCLK_RTC  RTC peripheral clock
 347:C:/Users/vovua/STM32Cube/Repository/STM32Cube_FW_F1_V1.8.4/Drivers/STM32F1xx_HAL_Driver/Src\stm32f1xx_hal_rcc_ex.c ****   *            @arg @ref RCC_PERIPHCLK_ADC  ADC peripheral clock
 348:C:/Users/vovua/STM32Cube/Repository/STM32Cube_FW_F1_V1.8.4/Drivers/STM32F1xx_HAL_Driver/Src\stm32f1xx_hal_rcc_ex.c ****   @if STM32F103xE
 349:C:/Users/vovua/STM32Cube/Repository/STM32Cube_FW_F1_V1.8.4/Drivers/STM32F1xx_HAL_Driver/Src\stm32f1xx_hal_rcc_ex.c ****   *            @arg @ref RCC_PERIPHCLK_I2S2 I2S2 peripheral clock
 350:C:/Users/vovua/STM32Cube/Repository/STM32Cube_FW_F1_V1.8.4/Drivers/STM32F1xx_HAL_Driver/Src\stm32f1xx_hal_rcc_ex.c ****   *            @arg @ref RCC_PERIPHCLK_I2S3 I2S3 peripheral clock
 351:C:/Users/vovua/STM32Cube/Repository/STM32Cube_FW_F1_V1.8.4/Drivers/STM32F1xx_HAL_Driver/Src\stm32f1xx_hal_rcc_ex.c ****   *            @arg @ref RCC_PERIPHCLK_I2S3 I2S3 peripheral clock
 352:C:/Users/vovua/STM32Cube/Repository/STM32Cube_FW_F1_V1.8.4/Drivers/STM32F1xx_HAL_Driver/Src\stm32f1xx_hal_rcc_ex.c ****   @endif
 353:C:/Users/vovua/STM32Cube/Repository/STM32Cube_FW_F1_V1.8.4/Drivers/STM32F1xx_HAL_Driver/Src\stm32f1xx_hal_rcc_ex.c ****   @if STM32F103xG
 354:C:/Users/vovua/STM32Cube/Repository/STM32Cube_FW_F1_V1.8.4/Drivers/STM32F1xx_HAL_Driver/Src\stm32f1xx_hal_rcc_ex.c ****   *            @arg @ref RCC_PERIPHCLK_I2S2 I2S2 peripheral clock
 355:C:/Users/vovua/STM32Cube/Repository/STM32Cube_FW_F1_V1.8.4/Drivers/STM32F1xx_HAL_Driver/Src\stm32f1xx_hal_rcc_ex.c ****   *            @arg @ref RCC_PERIPHCLK_I2S3 I2S3 peripheral clock
 356:C:/Users/vovua/STM32Cube/Repository/STM32Cube_FW_F1_V1.8.4/Drivers/STM32F1xx_HAL_Driver/Src\stm32f1xx_hal_rcc_ex.c ****   *            @arg @ref RCC_PERIPHCLK_I2S3 I2S3 peripheral clock
 357:C:/Users/vovua/STM32Cube/Repository/STM32Cube_FW_F1_V1.8.4/Drivers/STM32F1xx_HAL_Driver/Src\stm32f1xx_hal_rcc_ex.c ****   *            @arg @ref RCC_PERIPHCLK_I2S2 I2S2 peripheral clock
ARM GAS  C:\Users\vovua\AppData\Local\Temp\ccmOFQ3a.s 			page 14


 358:C:/Users/vovua/STM32Cube/Repository/STM32Cube_FW_F1_V1.8.4/Drivers/STM32F1xx_HAL_Driver/Src\stm32f1xx_hal_rcc_ex.c ****   @endif
 359:C:/Users/vovua/STM32Cube/Repository/STM32Cube_FW_F1_V1.8.4/Drivers/STM32F1xx_HAL_Driver/Src\stm32f1xx_hal_rcc_ex.c ****   @if STM32F105xC
 360:C:/Users/vovua/STM32Cube/Repository/STM32Cube_FW_F1_V1.8.4/Drivers/STM32F1xx_HAL_Driver/Src\stm32f1xx_hal_rcc_ex.c ****   *            @arg @ref RCC_PERIPHCLK_I2S2 I2S2 peripheral clock
 361:C:/Users/vovua/STM32Cube/Repository/STM32Cube_FW_F1_V1.8.4/Drivers/STM32F1xx_HAL_Driver/Src\stm32f1xx_hal_rcc_ex.c ****   *            @arg @ref RCC_PERIPHCLK_I2S3 I2S3 peripheral clock
 362:C:/Users/vovua/STM32Cube/Repository/STM32Cube_FW_F1_V1.8.4/Drivers/STM32F1xx_HAL_Driver/Src\stm32f1xx_hal_rcc_ex.c ****   *            @arg @ref RCC_PERIPHCLK_I2S3 I2S3 peripheral clock
 363:C:/Users/vovua/STM32Cube/Repository/STM32Cube_FW_F1_V1.8.4/Drivers/STM32F1xx_HAL_Driver/Src\stm32f1xx_hal_rcc_ex.c ****   *            @arg @ref RCC_PERIPHCLK_I2S2 I2S2 peripheral clock
 364:C:/Users/vovua/STM32Cube/Repository/STM32Cube_FW_F1_V1.8.4/Drivers/STM32F1xx_HAL_Driver/Src\stm32f1xx_hal_rcc_ex.c ****   *            @arg @ref RCC_PERIPHCLK_I2S3 I2S3 peripheral clock
 365:C:/Users/vovua/STM32Cube/Repository/STM32Cube_FW_F1_V1.8.4/Drivers/STM32F1xx_HAL_Driver/Src\stm32f1xx_hal_rcc_ex.c ****   *            @arg @ref RCC_PERIPHCLK_I2S3 I2S3 peripheral clock
 366:C:/Users/vovua/STM32Cube/Repository/STM32Cube_FW_F1_V1.8.4/Drivers/STM32F1xx_HAL_Driver/Src\stm32f1xx_hal_rcc_ex.c ****   *            @arg @ref RCC_PERIPHCLK_I2S2 I2S2 peripheral clock
 367:C:/Users/vovua/STM32Cube/Repository/STM32Cube_FW_F1_V1.8.4/Drivers/STM32F1xx_HAL_Driver/Src\stm32f1xx_hal_rcc_ex.c ****   *            @arg @ref RCC_PERIPHCLK_USB  USB peripheral clock
 368:C:/Users/vovua/STM32Cube/Repository/STM32Cube_FW_F1_V1.8.4/Drivers/STM32F1xx_HAL_Driver/Src\stm32f1xx_hal_rcc_ex.c ****   @endif
 369:C:/Users/vovua/STM32Cube/Repository/STM32Cube_FW_F1_V1.8.4/Drivers/STM32F1xx_HAL_Driver/Src\stm32f1xx_hal_rcc_ex.c ****   @if STM32F107xC
 370:C:/Users/vovua/STM32Cube/Repository/STM32Cube_FW_F1_V1.8.4/Drivers/STM32F1xx_HAL_Driver/Src\stm32f1xx_hal_rcc_ex.c ****   *            @arg @ref RCC_PERIPHCLK_I2S2 I2S2 peripheral clock
 371:C:/Users/vovua/STM32Cube/Repository/STM32Cube_FW_F1_V1.8.4/Drivers/STM32F1xx_HAL_Driver/Src\stm32f1xx_hal_rcc_ex.c ****   *            @arg @ref RCC_PERIPHCLK_I2S3 I2S3 peripheral clock
 372:C:/Users/vovua/STM32Cube/Repository/STM32Cube_FW_F1_V1.8.4/Drivers/STM32F1xx_HAL_Driver/Src\stm32f1xx_hal_rcc_ex.c ****   *            @arg @ref RCC_PERIPHCLK_I2S3 I2S3 peripheral clock
 373:C:/Users/vovua/STM32Cube/Repository/STM32Cube_FW_F1_V1.8.4/Drivers/STM32F1xx_HAL_Driver/Src\stm32f1xx_hal_rcc_ex.c ****   *            @arg @ref RCC_PERIPHCLK_I2S2 I2S2 peripheral clock
 374:C:/Users/vovua/STM32Cube/Repository/STM32Cube_FW_F1_V1.8.4/Drivers/STM32F1xx_HAL_Driver/Src\stm32f1xx_hal_rcc_ex.c ****   *            @arg @ref RCC_PERIPHCLK_I2S3 I2S3 peripheral clock
 375:C:/Users/vovua/STM32Cube/Repository/STM32Cube_FW_F1_V1.8.4/Drivers/STM32F1xx_HAL_Driver/Src\stm32f1xx_hal_rcc_ex.c ****   *            @arg @ref RCC_PERIPHCLK_I2S3 I2S3 peripheral clock
 376:C:/Users/vovua/STM32Cube/Repository/STM32Cube_FW_F1_V1.8.4/Drivers/STM32F1xx_HAL_Driver/Src\stm32f1xx_hal_rcc_ex.c ****   *            @arg @ref RCC_PERIPHCLK_I2S2 I2S2 peripheral clock
 377:C:/Users/vovua/STM32Cube/Repository/STM32Cube_FW_F1_V1.8.4/Drivers/STM32F1xx_HAL_Driver/Src\stm32f1xx_hal_rcc_ex.c ****   *            @arg @ref RCC_PERIPHCLK_USB  USB peripheral clock
 378:C:/Users/vovua/STM32Cube/Repository/STM32Cube_FW_F1_V1.8.4/Drivers/STM32F1xx_HAL_Driver/Src\stm32f1xx_hal_rcc_ex.c ****   @endif
 379:C:/Users/vovua/STM32Cube/Repository/STM32Cube_FW_F1_V1.8.4/Drivers/STM32F1xx_HAL_Driver/Src\stm32f1xx_hal_rcc_ex.c ****   @if STM32F102xx
 380:C:/Users/vovua/STM32Cube/Repository/STM32Cube_FW_F1_V1.8.4/Drivers/STM32F1xx_HAL_Driver/Src\stm32f1xx_hal_rcc_ex.c ****   *            @arg @ref RCC_PERIPHCLK_USB  USB peripheral clock
 381:C:/Users/vovua/STM32Cube/Repository/STM32Cube_FW_F1_V1.8.4/Drivers/STM32F1xx_HAL_Driver/Src\stm32f1xx_hal_rcc_ex.c ****   @endif
 382:C:/Users/vovua/STM32Cube/Repository/STM32Cube_FW_F1_V1.8.4/Drivers/STM32F1xx_HAL_Driver/Src\stm32f1xx_hal_rcc_ex.c ****   @if STM32F103xx
 383:C:/Users/vovua/STM32Cube/Repository/STM32Cube_FW_F1_V1.8.4/Drivers/STM32F1xx_HAL_Driver/Src\stm32f1xx_hal_rcc_ex.c ****   *            @arg @ref RCC_PERIPHCLK_USB  USB peripheral clock
 384:C:/Users/vovua/STM32Cube/Repository/STM32Cube_FW_F1_V1.8.4/Drivers/STM32F1xx_HAL_Driver/Src\stm32f1xx_hal_rcc_ex.c ****   @endif
 385:C:/Users/vovua/STM32Cube/Repository/STM32Cube_FW_F1_V1.8.4/Drivers/STM32F1xx_HAL_Driver/Src\stm32f1xx_hal_rcc_ex.c ****   * @retval Frequency in Hz (0: means that no available frequency for the peripheral)
 386:C:/Users/vovua/STM32Cube/Repository/STM32Cube_FW_F1_V1.8.4/Drivers/STM32F1xx_HAL_Driver/Src\stm32f1xx_hal_rcc_ex.c ****   */
 387:C:/Users/vovua/STM32Cube/Repository/STM32Cube_FW_F1_V1.8.4/Drivers/STM32F1xx_HAL_Driver/Src\stm32f1xx_hal_rcc_ex.c **** uint32_t HAL_RCCEx_GetPeriphCLKFreq(uint32_t PeriphClk)
 388:C:/Users/vovua/STM32Cube/Repository/STM32Cube_FW_F1_V1.8.4/Drivers/STM32F1xx_HAL_Driver/Src\stm32f1xx_hal_rcc_ex.c **** {
 361              		.loc 1 388 1 is_stmt 1 view -0
 362              		.cfi_startproc
 363              		@ args = 0, pretend = 0, frame = 24
 364              		@ frame_needed = 0, uses_anonymous_args = 0
 365              		.loc 1 388 1 is_stmt 0 view .LVU106
 366 0000 00B5     		push	{lr}
 367              	.LCFI3:
 368              		.cfi_def_cfa_offset 4
 369              		.cfi_offset 14, -4
 370 0002 87B0     		sub	sp, sp, #28
 371              	.LCFI4:
 372              		.cfi_def_cfa_offset 32
 373 0004 8446     		mov	ip, r0
 389:C:/Users/vovua/STM32Cube/Repository/STM32Cube_FW_F1_V1.8.4/Drivers/STM32F1xx_HAL_Driver/Src\stm32f1xx_hal_rcc_ex.c **** #if defined(STM32F105xC) || defined(STM32F107xC)
 390:C:/Users/vovua/STM32Cube/Repository/STM32Cube_FW_F1_V1.8.4/Drivers/STM32F1xx_HAL_Driver/Src\stm32f1xx_hal_rcc_ex.c ****   const uint8_t aPLLMULFactorTable[14] = {0, 0, 4, 5, 6, 7, 8, 9, 0, 0, 0, 0, 0, 13};
 391:C:/Users/vovua/STM32Cube/Repository/STM32Cube_FW_F1_V1.8.4/Drivers/STM32F1xx_HAL_Driver/Src\stm32f1xx_hal_rcc_ex.c ****   const uint8_t aPredivFactorTable[16] = {1, 2, 3, 4, 5, 6, 7, 8, 9, 10, 11, 12, 13, 14, 15, 16};
 392:C:/Users/vovua/STM32Cube/Repository/STM32Cube_FW_F1_V1.8.4/Drivers/STM32F1xx_HAL_Driver/Src\stm32f1xx_hal_rcc_ex.c **** 
 393:C:/Users/vovua/STM32Cube/Repository/STM32Cube_FW_F1_V1.8.4/Drivers/STM32F1xx_HAL_Driver/Src\stm32f1xx_hal_rcc_ex.c ****   uint32_t prediv1 = 0U, pllclk = 0U, pllmul = 0U;
 394:C:/Users/vovua/STM32Cube/Repository/STM32Cube_FW_F1_V1.8.4/Drivers/STM32F1xx_HAL_Driver/Src\stm32f1xx_hal_rcc_ex.c ****   uint32_t pll2mul = 0U, pll3mul = 0U, prediv2 = 0U;
 395:C:/Users/vovua/STM32Cube/Repository/STM32Cube_FW_F1_V1.8.4/Drivers/STM32F1xx_HAL_Driver/Src\stm32f1xx_hal_rcc_ex.c **** #endif /* STM32F105xC || STM32F107xC */
 396:C:/Users/vovua/STM32Cube/Repository/STM32Cube_FW_F1_V1.8.4/Drivers/STM32F1xx_HAL_Driver/Src\stm32f1xx_hal_rcc_ex.c **** #if defined(STM32F102x6) || defined(STM32F102xB) || defined(STM32F103x6) || \
 397:C:/Users/vovua/STM32Cube/Repository/STM32Cube_FW_F1_V1.8.4/Drivers/STM32F1xx_HAL_Driver/Src\stm32f1xx_hal_rcc_ex.c ****     defined(STM32F103xB) || defined(STM32F103xE) || defined(STM32F103xG)
 398:C:/Users/vovua/STM32Cube/Repository/STM32Cube_FW_F1_V1.8.4/Drivers/STM32F1xx_HAL_Driver/Src\stm32f1xx_hal_rcc_ex.c ****   const uint8_t aPLLMULFactorTable[16] = {2, 3, 4, 5, 6, 7, 8, 9, 10, 11, 12, 13, 14, 15, 16, 16};
 374              		.loc 1 398 3 is_stmt 1 view .LVU107
 375              		.loc 1 398 17 is_stmt 0 view .LVU108
 376 0006 394B     		ldr	r3, .L40
ARM GAS  C:\Users\vovua\AppData\Local\Temp\ccmOFQ3a.s 			page 15


 377 0008 0FCB     		ldm	r3, {r0, r1, r2, r3}
 378              	.LVL28:
 379              		.loc 1 398 17 view .LVU109
 380 000a 0DF1180E 		add	lr, sp, #24
 381 000e 0EE90F00 		stmdb	lr, {r0, r1, r2, r3}
 399:C:/Users/vovua/STM32Cube/Repository/STM32Cube_FW_F1_V1.8.4/Drivers/STM32F1xx_HAL_Driver/Src\stm32f1xx_hal_rcc_ex.c ****   const uint8_t aPredivFactorTable[2] = {1, 2};
 382              		.loc 1 399 3 is_stmt 1 view .LVU110
 383              		.loc 1 399 17 is_stmt 0 view .LVU111
 384 0012 40F20123 		movw	r3, #513
 385 0016 ADF80430 		strh	r3, [sp, #4]	@ movhi
 400:C:/Users/vovua/STM32Cube/Repository/STM32Cube_FW_F1_V1.8.4/Drivers/STM32F1xx_HAL_Driver/Src\stm32f1xx_hal_rcc_ex.c **** 
 401:C:/Users/vovua/STM32Cube/Repository/STM32Cube_FW_F1_V1.8.4/Drivers/STM32F1xx_HAL_Driver/Src\stm32f1xx_hal_rcc_ex.c ****   uint32_t prediv1 = 0U, pllclk = 0U, pllmul = 0U;
 386              		.loc 1 401 3 is_stmt 1 view .LVU112
 387              	.LVL29:
 402:C:/Users/vovua/STM32Cube/Repository/STM32Cube_FW_F1_V1.8.4/Drivers/STM32F1xx_HAL_Driver/Src\stm32f1xx_hal_rcc_ex.c **** #endif /* STM32F102x6 || STM32F102xB || STM32F103x6 || STM32F103xB || STM32F103xE || STM32F103xG */
 403:C:/Users/vovua/STM32Cube/Repository/STM32Cube_FW_F1_V1.8.4/Drivers/STM32F1xx_HAL_Driver/Src\stm32f1xx_hal_rcc_ex.c ****   uint32_t temp_reg = 0U, frequency = 0U;
 388              		.loc 1 403 3 view .LVU113
 404:C:/Users/vovua/STM32Cube/Repository/STM32Cube_FW_F1_V1.8.4/Drivers/STM32F1xx_HAL_Driver/Src\stm32f1xx_hal_rcc_ex.c **** 
 405:C:/Users/vovua/STM32Cube/Repository/STM32Cube_FW_F1_V1.8.4/Drivers/STM32F1xx_HAL_Driver/Src\stm32f1xx_hal_rcc_ex.c ****   /* Check the parameters */
 406:C:/Users/vovua/STM32Cube/Repository/STM32Cube_FW_F1_V1.8.4/Drivers/STM32F1xx_HAL_Driver/Src\stm32f1xx_hal_rcc_ex.c ****   assert_param(IS_RCC_PERIPHCLOCK(PeriphClk));
 389              		.loc 1 406 3 view .LVU114
 407:C:/Users/vovua/STM32Cube/Repository/STM32Cube_FW_F1_V1.8.4/Drivers/STM32F1xx_HAL_Driver/Src\stm32f1xx_hal_rcc_ex.c **** 
 408:C:/Users/vovua/STM32Cube/Repository/STM32Cube_FW_F1_V1.8.4/Drivers/STM32F1xx_HAL_Driver/Src\stm32f1xx_hal_rcc_ex.c ****   switch (PeriphClk)
 390              		.loc 1 408 3 view .LVU115
 391 001a BCF1020F 		cmp	ip, #2
 392 001e 56D0     		beq	.L26
 393 0020 BCF1100F 		cmp	ip, #16
 394 0024 06D0     		beq	.L27
 395 0026 BCF1010F 		cmp	ip, #1
 396 002a 2ED0     		beq	.L28
 397 002c 0020     		movs	r0, #0
 398              	.LVL30:
 399              	.L25:
 409:C:/Users/vovua/STM32Cube/Repository/STM32Cube_FW_F1_V1.8.4/Drivers/STM32F1xx_HAL_Driver/Src\stm32f1xx_hal_rcc_ex.c ****   {
 410:C:/Users/vovua/STM32Cube/Repository/STM32Cube_FW_F1_V1.8.4/Drivers/STM32F1xx_HAL_Driver/Src\stm32f1xx_hal_rcc_ex.c **** #if defined(STM32F102x6) || defined(STM32F102xB) || defined(STM32F103x6)\
 411:C:/Users/vovua/STM32Cube/Repository/STM32Cube_FW_F1_V1.8.4/Drivers/STM32F1xx_HAL_Driver/Src\stm32f1xx_hal_rcc_ex.c ****  || defined(STM32F103xB) || defined(STM32F103xE) || defined(STM32F103xG)\
 412:C:/Users/vovua/STM32Cube/Repository/STM32Cube_FW_F1_V1.8.4/Drivers/STM32F1xx_HAL_Driver/Src\stm32f1xx_hal_rcc_ex.c ****  || defined(STM32F105xC) || defined(STM32F107xC)
 413:C:/Users/vovua/STM32Cube/Repository/STM32Cube_FW_F1_V1.8.4/Drivers/STM32F1xx_HAL_Driver/Src\stm32f1xx_hal_rcc_ex.c ****     case RCC_PERIPHCLK_USB:
 414:C:/Users/vovua/STM32Cube/Repository/STM32Cube_FW_F1_V1.8.4/Drivers/STM32F1xx_HAL_Driver/Src\stm32f1xx_hal_rcc_ex.c ****     {
 415:C:/Users/vovua/STM32Cube/Repository/STM32Cube_FW_F1_V1.8.4/Drivers/STM32F1xx_HAL_Driver/Src\stm32f1xx_hal_rcc_ex.c ****       /* Get RCC configuration ------------------------------------------------------*/
 416:C:/Users/vovua/STM32Cube/Repository/STM32Cube_FW_F1_V1.8.4/Drivers/STM32F1xx_HAL_Driver/Src\stm32f1xx_hal_rcc_ex.c ****       temp_reg = RCC->CFGR;
 417:C:/Users/vovua/STM32Cube/Repository/STM32Cube_FW_F1_V1.8.4/Drivers/STM32F1xx_HAL_Driver/Src\stm32f1xx_hal_rcc_ex.c **** 
 418:C:/Users/vovua/STM32Cube/Repository/STM32Cube_FW_F1_V1.8.4/Drivers/STM32F1xx_HAL_Driver/Src\stm32f1xx_hal_rcc_ex.c ****       /* Check if PLL is enabled */
 419:C:/Users/vovua/STM32Cube/Repository/STM32Cube_FW_F1_V1.8.4/Drivers/STM32F1xx_HAL_Driver/Src\stm32f1xx_hal_rcc_ex.c ****       if (HAL_IS_BIT_SET(RCC->CR, RCC_CR_PLLON))
 420:C:/Users/vovua/STM32Cube/Repository/STM32Cube_FW_F1_V1.8.4/Drivers/STM32F1xx_HAL_Driver/Src\stm32f1xx_hal_rcc_ex.c ****       {
 421:C:/Users/vovua/STM32Cube/Repository/STM32Cube_FW_F1_V1.8.4/Drivers/STM32F1xx_HAL_Driver/Src\stm32f1xx_hal_rcc_ex.c ****         pllmul = aPLLMULFactorTable[(uint32_t)(temp_reg & RCC_CFGR_PLLMULL) >> RCC_CFGR_PLLMULL_Pos
 422:C:/Users/vovua/STM32Cube/Repository/STM32Cube_FW_F1_V1.8.4/Drivers/STM32F1xx_HAL_Driver/Src\stm32f1xx_hal_rcc_ex.c ****         if ((temp_reg & RCC_CFGR_PLLSRC) != RCC_PLLSOURCE_HSI_DIV2)
 423:C:/Users/vovua/STM32Cube/Repository/STM32Cube_FW_F1_V1.8.4/Drivers/STM32F1xx_HAL_Driver/Src\stm32f1xx_hal_rcc_ex.c ****         {
 424:C:/Users/vovua/STM32Cube/Repository/STM32Cube_FW_F1_V1.8.4/Drivers/STM32F1xx_HAL_Driver/Src\stm32f1xx_hal_rcc_ex.c **** #if defined(STM32F105xC) || defined(STM32F107xC) || defined(STM32F100xB)\
 425:C:/Users/vovua/STM32Cube/Repository/STM32Cube_FW_F1_V1.8.4/Drivers/STM32F1xx_HAL_Driver/Src\stm32f1xx_hal_rcc_ex.c ****  || defined(STM32F100xE)
 426:C:/Users/vovua/STM32Cube/Repository/STM32Cube_FW_F1_V1.8.4/Drivers/STM32F1xx_HAL_Driver/Src\stm32f1xx_hal_rcc_ex.c ****           prediv1 = aPredivFactorTable[(uint32_t)(RCC->CFGR2 & RCC_CFGR2_PREDIV1) >> RCC_CFGR2_PRED
 427:C:/Users/vovua/STM32Cube/Repository/STM32Cube_FW_F1_V1.8.4/Drivers/STM32F1xx_HAL_Driver/Src\stm32f1xx_hal_rcc_ex.c **** #else
 428:C:/Users/vovua/STM32Cube/Repository/STM32Cube_FW_F1_V1.8.4/Drivers/STM32F1xx_HAL_Driver/Src\stm32f1xx_hal_rcc_ex.c ****           prediv1 = aPredivFactorTable[(uint32_t)(RCC->CFGR & RCC_CFGR_PLLXTPRE) >> RCC_CFGR_PLLXTP
 429:C:/Users/vovua/STM32Cube/Repository/STM32Cube_FW_F1_V1.8.4/Drivers/STM32F1xx_HAL_Driver/Src\stm32f1xx_hal_rcc_ex.c **** #endif /* STM32F105xC || STM32F107xC || STM32F100xB || STM32F100xE */
 430:C:/Users/vovua/STM32Cube/Repository/STM32Cube_FW_F1_V1.8.4/Drivers/STM32F1xx_HAL_Driver/Src\stm32f1xx_hal_rcc_ex.c **** 
 431:C:/Users/vovua/STM32Cube/Repository/STM32Cube_FW_F1_V1.8.4/Drivers/STM32F1xx_HAL_Driver/Src\stm32f1xx_hal_rcc_ex.c **** #if defined(STM32F105xC) || defined(STM32F107xC)
 432:C:/Users/vovua/STM32Cube/Repository/STM32Cube_FW_F1_V1.8.4/Drivers/STM32F1xx_HAL_Driver/Src\stm32f1xx_hal_rcc_ex.c ****           if (HAL_IS_BIT_SET(RCC->CFGR2, RCC_CFGR2_PREDIV1SRC))
ARM GAS  C:\Users\vovua\AppData\Local\Temp\ccmOFQ3a.s 			page 16


 433:C:/Users/vovua/STM32Cube/Repository/STM32Cube_FW_F1_V1.8.4/Drivers/STM32F1xx_HAL_Driver/Src\stm32f1xx_hal_rcc_ex.c ****           {
 434:C:/Users/vovua/STM32Cube/Repository/STM32Cube_FW_F1_V1.8.4/Drivers/STM32F1xx_HAL_Driver/Src\stm32f1xx_hal_rcc_ex.c ****             /* PLL2 selected as Prediv1 source */
 435:C:/Users/vovua/STM32Cube/Repository/STM32Cube_FW_F1_V1.8.4/Drivers/STM32F1xx_HAL_Driver/Src\stm32f1xx_hal_rcc_ex.c ****             /* PLLCLK = PLL2CLK / PREDIV1 * PLLMUL with PLL2CLK = HSE/PREDIV2 * PLL2MUL */
 436:C:/Users/vovua/STM32Cube/Repository/STM32Cube_FW_F1_V1.8.4/Drivers/STM32F1xx_HAL_Driver/Src\stm32f1xx_hal_rcc_ex.c ****             prediv2 = ((RCC->CFGR2 & RCC_CFGR2_PREDIV2) >> RCC_CFGR2_PREDIV2_Pos) + 1;
 437:C:/Users/vovua/STM32Cube/Repository/STM32Cube_FW_F1_V1.8.4/Drivers/STM32F1xx_HAL_Driver/Src\stm32f1xx_hal_rcc_ex.c ****             pll2mul = ((RCC->CFGR2 & RCC_CFGR2_PLL2MUL) >> RCC_CFGR2_PLL2MUL_Pos) + 2;
 438:C:/Users/vovua/STM32Cube/Repository/STM32Cube_FW_F1_V1.8.4/Drivers/STM32F1xx_HAL_Driver/Src\stm32f1xx_hal_rcc_ex.c ****             pllclk = (uint32_t)((((HSE_VALUE / prediv2) * pll2mul) / prediv1) * pllmul);
 439:C:/Users/vovua/STM32Cube/Repository/STM32Cube_FW_F1_V1.8.4/Drivers/STM32F1xx_HAL_Driver/Src\stm32f1xx_hal_rcc_ex.c ****           }
 440:C:/Users/vovua/STM32Cube/Repository/STM32Cube_FW_F1_V1.8.4/Drivers/STM32F1xx_HAL_Driver/Src\stm32f1xx_hal_rcc_ex.c ****           else
 441:C:/Users/vovua/STM32Cube/Repository/STM32Cube_FW_F1_V1.8.4/Drivers/STM32F1xx_HAL_Driver/Src\stm32f1xx_hal_rcc_ex.c ****           {
 442:C:/Users/vovua/STM32Cube/Repository/STM32Cube_FW_F1_V1.8.4/Drivers/STM32F1xx_HAL_Driver/Src\stm32f1xx_hal_rcc_ex.c ****             /* HSE used as PLL clock source : PLLCLK = HSE/PREDIV1 * PLLMUL */
 443:C:/Users/vovua/STM32Cube/Repository/STM32Cube_FW_F1_V1.8.4/Drivers/STM32F1xx_HAL_Driver/Src\stm32f1xx_hal_rcc_ex.c ****             pllclk = (uint32_t)((HSE_VALUE / prediv1) * pllmul);
 444:C:/Users/vovua/STM32Cube/Repository/STM32Cube_FW_F1_V1.8.4/Drivers/STM32F1xx_HAL_Driver/Src\stm32f1xx_hal_rcc_ex.c ****           }
 445:C:/Users/vovua/STM32Cube/Repository/STM32Cube_FW_F1_V1.8.4/Drivers/STM32F1xx_HAL_Driver/Src\stm32f1xx_hal_rcc_ex.c **** 
 446:C:/Users/vovua/STM32Cube/Repository/STM32Cube_FW_F1_V1.8.4/Drivers/STM32F1xx_HAL_Driver/Src\stm32f1xx_hal_rcc_ex.c ****           /* If PLLMUL was set to 13 means that it was to cover the case PLLMUL 6.5 (avoid using fl
 447:C:/Users/vovua/STM32Cube/Repository/STM32Cube_FW_F1_V1.8.4/Drivers/STM32F1xx_HAL_Driver/Src\stm32f1xx_hal_rcc_ex.c ****           /* In this case need to divide pllclk by 2 */
 448:C:/Users/vovua/STM32Cube/Repository/STM32Cube_FW_F1_V1.8.4/Drivers/STM32F1xx_HAL_Driver/Src\stm32f1xx_hal_rcc_ex.c ****           if (pllmul == aPLLMULFactorTable[(uint32_t)(RCC_CFGR_PLLMULL6_5) >> RCC_CFGR_PLLMULL_Pos]
 449:C:/Users/vovua/STM32Cube/Repository/STM32Cube_FW_F1_V1.8.4/Drivers/STM32F1xx_HAL_Driver/Src\stm32f1xx_hal_rcc_ex.c ****           {
 450:C:/Users/vovua/STM32Cube/Repository/STM32Cube_FW_F1_V1.8.4/Drivers/STM32F1xx_HAL_Driver/Src\stm32f1xx_hal_rcc_ex.c ****             pllclk = pllclk / 2;
 451:C:/Users/vovua/STM32Cube/Repository/STM32Cube_FW_F1_V1.8.4/Drivers/STM32F1xx_HAL_Driver/Src\stm32f1xx_hal_rcc_ex.c ****           }
 452:C:/Users/vovua/STM32Cube/Repository/STM32Cube_FW_F1_V1.8.4/Drivers/STM32F1xx_HAL_Driver/Src\stm32f1xx_hal_rcc_ex.c **** #else
 453:C:/Users/vovua/STM32Cube/Repository/STM32Cube_FW_F1_V1.8.4/Drivers/STM32F1xx_HAL_Driver/Src\stm32f1xx_hal_rcc_ex.c ****           if ((temp_reg & RCC_CFGR_PLLSRC) != RCC_PLLSOURCE_HSI_DIV2)
 454:C:/Users/vovua/STM32Cube/Repository/STM32Cube_FW_F1_V1.8.4/Drivers/STM32F1xx_HAL_Driver/Src\stm32f1xx_hal_rcc_ex.c ****           {
 455:C:/Users/vovua/STM32Cube/Repository/STM32Cube_FW_F1_V1.8.4/Drivers/STM32F1xx_HAL_Driver/Src\stm32f1xx_hal_rcc_ex.c ****             /* HSE used as PLL clock source : PLLCLK = HSE/PREDIV1 * PLLMUL */
 456:C:/Users/vovua/STM32Cube/Repository/STM32Cube_FW_F1_V1.8.4/Drivers/STM32F1xx_HAL_Driver/Src\stm32f1xx_hal_rcc_ex.c ****             pllclk = (uint32_t)((HSE_VALUE / prediv1) * pllmul);
 457:C:/Users/vovua/STM32Cube/Repository/STM32Cube_FW_F1_V1.8.4/Drivers/STM32F1xx_HAL_Driver/Src\stm32f1xx_hal_rcc_ex.c ****           }
 458:C:/Users/vovua/STM32Cube/Repository/STM32Cube_FW_F1_V1.8.4/Drivers/STM32F1xx_HAL_Driver/Src\stm32f1xx_hal_rcc_ex.c **** #endif /* STM32F105xC || STM32F107xC */
 459:C:/Users/vovua/STM32Cube/Repository/STM32Cube_FW_F1_V1.8.4/Drivers/STM32F1xx_HAL_Driver/Src\stm32f1xx_hal_rcc_ex.c ****         }
 460:C:/Users/vovua/STM32Cube/Repository/STM32Cube_FW_F1_V1.8.4/Drivers/STM32F1xx_HAL_Driver/Src\stm32f1xx_hal_rcc_ex.c ****         else
 461:C:/Users/vovua/STM32Cube/Repository/STM32Cube_FW_F1_V1.8.4/Drivers/STM32F1xx_HAL_Driver/Src\stm32f1xx_hal_rcc_ex.c ****         {
 462:C:/Users/vovua/STM32Cube/Repository/STM32Cube_FW_F1_V1.8.4/Drivers/STM32F1xx_HAL_Driver/Src\stm32f1xx_hal_rcc_ex.c ****           /* HSI used as PLL clock source : PLLCLK = HSI/2 * PLLMUL */
 463:C:/Users/vovua/STM32Cube/Repository/STM32Cube_FW_F1_V1.8.4/Drivers/STM32F1xx_HAL_Driver/Src\stm32f1xx_hal_rcc_ex.c ****           pllclk = (uint32_t)((HSI_VALUE >> 1) * pllmul);
 464:C:/Users/vovua/STM32Cube/Repository/STM32Cube_FW_F1_V1.8.4/Drivers/STM32F1xx_HAL_Driver/Src\stm32f1xx_hal_rcc_ex.c ****         }
 465:C:/Users/vovua/STM32Cube/Repository/STM32Cube_FW_F1_V1.8.4/Drivers/STM32F1xx_HAL_Driver/Src\stm32f1xx_hal_rcc_ex.c **** 
 466:C:/Users/vovua/STM32Cube/Repository/STM32Cube_FW_F1_V1.8.4/Drivers/STM32F1xx_HAL_Driver/Src\stm32f1xx_hal_rcc_ex.c ****         /* Calcul of the USB frequency*/
 467:C:/Users/vovua/STM32Cube/Repository/STM32Cube_FW_F1_V1.8.4/Drivers/STM32F1xx_HAL_Driver/Src\stm32f1xx_hal_rcc_ex.c **** #if defined(STM32F105xC) || defined(STM32F107xC)
 468:C:/Users/vovua/STM32Cube/Repository/STM32Cube_FW_F1_V1.8.4/Drivers/STM32F1xx_HAL_Driver/Src\stm32f1xx_hal_rcc_ex.c ****         /* USBCLK = PLLVCO = (2 x PLLCLK) / USB prescaler */
 469:C:/Users/vovua/STM32Cube/Repository/STM32Cube_FW_F1_V1.8.4/Drivers/STM32F1xx_HAL_Driver/Src\stm32f1xx_hal_rcc_ex.c ****         if (__HAL_RCC_GET_USB_SOURCE() == RCC_USBCLKSOURCE_PLL_DIV2)
 470:C:/Users/vovua/STM32Cube/Repository/STM32Cube_FW_F1_V1.8.4/Drivers/STM32F1xx_HAL_Driver/Src\stm32f1xx_hal_rcc_ex.c ****         {
 471:C:/Users/vovua/STM32Cube/Repository/STM32Cube_FW_F1_V1.8.4/Drivers/STM32F1xx_HAL_Driver/Src\stm32f1xx_hal_rcc_ex.c ****           /* Prescaler of 2 selected for USB */
 472:C:/Users/vovua/STM32Cube/Repository/STM32Cube_FW_F1_V1.8.4/Drivers/STM32F1xx_HAL_Driver/Src\stm32f1xx_hal_rcc_ex.c ****           frequency = pllclk;
 473:C:/Users/vovua/STM32Cube/Repository/STM32Cube_FW_F1_V1.8.4/Drivers/STM32F1xx_HAL_Driver/Src\stm32f1xx_hal_rcc_ex.c ****         }
 474:C:/Users/vovua/STM32Cube/Repository/STM32Cube_FW_F1_V1.8.4/Drivers/STM32F1xx_HAL_Driver/Src\stm32f1xx_hal_rcc_ex.c ****         else
 475:C:/Users/vovua/STM32Cube/Repository/STM32Cube_FW_F1_V1.8.4/Drivers/STM32F1xx_HAL_Driver/Src\stm32f1xx_hal_rcc_ex.c ****         {
 476:C:/Users/vovua/STM32Cube/Repository/STM32Cube_FW_F1_V1.8.4/Drivers/STM32F1xx_HAL_Driver/Src\stm32f1xx_hal_rcc_ex.c ****           /* Prescaler of 3 selected for USB */
 477:C:/Users/vovua/STM32Cube/Repository/STM32Cube_FW_F1_V1.8.4/Drivers/STM32F1xx_HAL_Driver/Src\stm32f1xx_hal_rcc_ex.c ****           frequency = (2 * pllclk) / 3;
 478:C:/Users/vovua/STM32Cube/Repository/STM32Cube_FW_F1_V1.8.4/Drivers/STM32F1xx_HAL_Driver/Src\stm32f1xx_hal_rcc_ex.c ****         }
 479:C:/Users/vovua/STM32Cube/Repository/STM32Cube_FW_F1_V1.8.4/Drivers/STM32F1xx_HAL_Driver/Src\stm32f1xx_hal_rcc_ex.c **** #else
 480:C:/Users/vovua/STM32Cube/Repository/STM32Cube_FW_F1_V1.8.4/Drivers/STM32F1xx_HAL_Driver/Src\stm32f1xx_hal_rcc_ex.c ****         /* USBCLK = PLLCLK / USB prescaler */
 481:C:/Users/vovua/STM32Cube/Repository/STM32Cube_FW_F1_V1.8.4/Drivers/STM32F1xx_HAL_Driver/Src\stm32f1xx_hal_rcc_ex.c ****         if (__HAL_RCC_GET_USB_SOURCE() == RCC_USBCLKSOURCE_PLL)
 482:C:/Users/vovua/STM32Cube/Repository/STM32Cube_FW_F1_V1.8.4/Drivers/STM32F1xx_HAL_Driver/Src\stm32f1xx_hal_rcc_ex.c ****         {
 483:C:/Users/vovua/STM32Cube/Repository/STM32Cube_FW_F1_V1.8.4/Drivers/STM32F1xx_HAL_Driver/Src\stm32f1xx_hal_rcc_ex.c ****           /* No prescaler selected for USB */
 484:C:/Users/vovua/STM32Cube/Repository/STM32Cube_FW_F1_V1.8.4/Drivers/STM32F1xx_HAL_Driver/Src\stm32f1xx_hal_rcc_ex.c ****           frequency = pllclk;
 485:C:/Users/vovua/STM32Cube/Repository/STM32Cube_FW_F1_V1.8.4/Drivers/STM32F1xx_HAL_Driver/Src\stm32f1xx_hal_rcc_ex.c ****         }
 486:C:/Users/vovua/STM32Cube/Repository/STM32Cube_FW_F1_V1.8.4/Drivers/STM32F1xx_HAL_Driver/Src\stm32f1xx_hal_rcc_ex.c ****         else
 487:C:/Users/vovua/STM32Cube/Repository/STM32Cube_FW_F1_V1.8.4/Drivers/STM32F1xx_HAL_Driver/Src\stm32f1xx_hal_rcc_ex.c ****         {
 488:C:/Users/vovua/STM32Cube/Repository/STM32Cube_FW_F1_V1.8.4/Drivers/STM32F1xx_HAL_Driver/Src\stm32f1xx_hal_rcc_ex.c ****           /* Prescaler of 1.5 selected for USB */
 489:C:/Users/vovua/STM32Cube/Repository/STM32Cube_FW_F1_V1.8.4/Drivers/STM32F1xx_HAL_Driver/Src\stm32f1xx_hal_rcc_ex.c ****           frequency = (pllclk * 2) / 3;
ARM GAS  C:\Users\vovua\AppData\Local\Temp\ccmOFQ3a.s 			page 17


 490:C:/Users/vovua/STM32Cube/Repository/STM32Cube_FW_F1_V1.8.4/Drivers/STM32F1xx_HAL_Driver/Src\stm32f1xx_hal_rcc_ex.c ****         }
 491:C:/Users/vovua/STM32Cube/Repository/STM32Cube_FW_F1_V1.8.4/Drivers/STM32F1xx_HAL_Driver/Src\stm32f1xx_hal_rcc_ex.c **** #endif
 492:C:/Users/vovua/STM32Cube/Repository/STM32Cube_FW_F1_V1.8.4/Drivers/STM32F1xx_HAL_Driver/Src\stm32f1xx_hal_rcc_ex.c ****       }
 493:C:/Users/vovua/STM32Cube/Repository/STM32Cube_FW_F1_V1.8.4/Drivers/STM32F1xx_HAL_Driver/Src\stm32f1xx_hal_rcc_ex.c ****       break;
 494:C:/Users/vovua/STM32Cube/Repository/STM32Cube_FW_F1_V1.8.4/Drivers/STM32F1xx_HAL_Driver/Src\stm32f1xx_hal_rcc_ex.c ****     }
 495:C:/Users/vovua/STM32Cube/Repository/STM32Cube_FW_F1_V1.8.4/Drivers/STM32F1xx_HAL_Driver/Src\stm32f1xx_hal_rcc_ex.c **** #endif /* STM32F102x6 || STM32F102xB || STM32F103x6 || STM32F103xB || STM32F103xE || STM32F103xG ||
 496:C:/Users/vovua/STM32Cube/Repository/STM32Cube_FW_F1_V1.8.4/Drivers/STM32F1xx_HAL_Driver/Src\stm32f1xx_hal_rcc_ex.c **** #if defined(STM32F103xE) || defined(STM32F103xG) || defined(STM32F105xC) || defined(STM32F107xC)
 497:C:/Users/vovua/STM32Cube/Repository/STM32Cube_FW_F1_V1.8.4/Drivers/STM32F1xx_HAL_Driver/Src\stm32f1xx_hal_rcc_ex.c ****     case RCC_PERIPHCLK_I2S2:
 498:C:/Users/vovua/STM32Cube/Repository/STM32Cube_FW_F1_V1.8.4/Drivers/STM32F1xx_HAL_Driver/Src\stm32f1xx_hal_rcc_ex.c ****     {
 499:C:/Users/vovua/STM32Cube/Repository/STM32Cube_FW_F1_V1.8.4/Drivers/STM32F1xx_HAL_Driver/Src\stm32f1xx_hal_rcc_ex.c **** #if defined(STM32F103xE) || defined(STM32F103xG)
 500:C:/Users/vovua/STM32Cube/Repository/STM32Cube_FW_F1_V1.8.4/Drivers/STM32F1xx_HAL_Driver/Src\stm32f1xx_hal_rcc_ex.c ****       /* SYSCLK used as source clock for I2S2 */
 501:C:/Users/vovua/STM32Cube/Repository/STM32Cube_FW_F1_V1.8.4/Drivers/STM32F1xx_HAL_Driver/Src\stm32f1xx_hal_rcc_ex.c ****       frequency = HAL_RCC_GetSysClockFreq();
 502:C:/Users/vovua/STM32Cube/Repository/STM32Cube_FW_F1_V1.8.4/Drivers/STM32F1xx_HAL_Driver/Src\stm32f1xx_hal_rcc_ex.c **** #else
 503:C:/Users/vovua/STM32Cube/Repository/STM32Cube_FW_F1_V1.8.4/Drivers/STM32F1xx_HAL_Driver/Src\stm32f1xx_hal_rcc_ex.c ****       if (__HAL_RCC_GET_I2S2_SOURCE() == RCC_I2S2CLKSOURCE_SYSCLK)
 504:C:/Users/vovua/STM32Cube/Repository/STM32Cube_FW_F1_V1.8.4/Drivers/STM32F1xx_HAL_Driver/Src\stm32f1xx_hal_rcc_ex.c ****       {
 505:C:/Users/vovua/STM32Cube/Repository/STM32Cube_FW_F1_V1.8.4/Drivers/STM32F1xx_HAL_Driver/Src\stm32f1xx_hal_rcc_ex.c ****         /* SYSCLK used as source clock for I2S2 */
 506:C:/Users/vovua/STM32Cube/Repository/STM32Cube_FW_F1_V1.8.4/Drivers/STM32F1xx_HAL_Driver/Src\stm32f1xx_hal_rcc_ex.c ****         frequency = HAL_RCC_GetSysClockFreq();
 507:C:/Users/vovua/STM32Cube/Repository/STM32Cube_FW_F1_V1.8.4/Drivers/STM32F1xx_HAL_Driver/Src\stm32f1xx_hal_rcc_ex.c ****       }
 508:C:/Users/vovua/STM32Cube/Repository/STM32Cube_FW_F1_V1.8.4/Drivers/STM32F1xx_HAL_Driver/Src\stm32f1xx_hal_rcc_ex.c ****       else
 509:C:/Users/vovua/STM32Cube/Repository/STM32Cube_FW_F1_V1.8.4/Drivers/STM32F1xx_HAL_Driver/Src\stm32f1xx_hal_rcc_ex.c ****       {
 510:C:/Users/vovua/STM32Cube/Repository/STM32Cube_FW_F1_V1.8.4/Drivers/STM32F1xx_HAL_Driver/Src\stm32f1xx_hal_rcc_ex.c ****         /* Check if PLLI2S is enabled */
 511:C:/Users/vovua/STM32Cube/Repository/STM32Cube_FW_F1_V1.8.4/Drivers/STM32F1xx_HAL_Driver/Src\stm32f1xx_hal_rcc_ex.c ****         if (HAL_IS_BIT_SET(RCC->CR, RCC_CR_PLL3ON))
 512:C:/Users/vovua/STM32Cube/Repository/STM32Cube_FW_F1_V1.8.4/Drivers/STM32F1xx_HAL_Driver/Src\stm32f1xx_hal_rcc_ex.c ****         {
 513:C:/Users/vovua/STM32Cube/Repository/STM32Cube_FW_F1_V1.8.4/Drivers/STM32F1xx_HAL_Driver/Src\stm32f1xx_hal_rcc_ex.c ****           /* PLLI2SVCO = 2 * PLLI2SCLK = 2 * (HSE/PREDIV2 * PLL3MUL) */
 514:C:/Users/vovua/STM32Cube/Repository/STM32Cube_FW_F1_V1.8.4/Drivers/STM32F1xx_HAL_Driver/Src\stm32f1xx_hal_rcc_ex.c ****           prediv2 = ((RCC->CFGR2 & RCC_CFGR2_PREDIV2) >> RCC_CFGR2_PREDIV2_Pos) + 1;
 515:C:/Users/vovua/STM32Cube/Repository/STM32Cube_FW_F1_V1.8.4/Drivers/STM32F1xx_HAL_Driver/Src\stm32f1xx_hal_rcc_ex.c ****           pll3mul = ((RCC->CFGR2 & RCC_CFGR2_PLL3MUL) >> RCC_CFGR2_PLL3MUL_Pos) + 2;
 516:C:/Users/vovua/STM32Cube/Repository/STM32Cube_FW_F1_V1.8.4/Drivers/STM32F1xx_HAL_Driver/Src\stm32f1xx_hal_rcc_ex.c ****           frequency = (uint32_t)(2 * ((HSE_VALUE / prediv2) * pll3mul));
 517:C:/Users/vovua/STM32Cube/Repository/STM32Cube_FW_F1_V1.8.4/Drivers/STM32F1xx_HAL_Driver/Src\stm32f1xx_hal_rcc_ex.c ****         }
 518:C:/Users/vovua/STM32Cube/Repository/STM32Cube_FW_F1_V1.8.4/Drivers/STM32F1xx_HAL_Driver/Src\stm32f1xx_hal_rcc_ex.c ****       }
 519:C:/Users/vovua/STM32Cube/Repository/STM32Cube_FW_F1_V1.8.4/Drivers/STM32F1xx_HAL_Driver/Src\stm32f1xx_hal_rcc_ex.c **** #endif /* STM32F103xE || STM32F103xG */
 520:C:/Users/vovua/STM32Cube/Repository/STM32Cube_FW_F1_V1.8.4/Drivers/STM32F1xx_HAL_Driver/Src\stm32f1xx_hal_rcc_ex.c ****       break;
 521:C:/Users/vovua/STM32Cube/Repository/STM32Cube_FW_F1_V1.8.4/Drivers/STM32F1xx_HAL_Driver/Src\stm32f1xx_hal_rcc_ex.c ****     }
 522:C:/Users/vovua/STM32Cube/Repository/STM32Cube_FW_F1_V1.8.4/Drivers/STM32F1xx_HAL_Driver/Src\stm32f1xx_hal_rcc_ex.c ****     case RCC_PERIPHCLK_I2S3:
 523:C:/Users/vovua/STM32Cube/Repository/STM32Cube_FW_F1_V1.8.4/Drivers/STM32F1xx_HAL_Driver/Src\stm32f1xx_hal_rcc_ex.c ****     {
 524:C:/Users/vovua/STM32Cube/Repository/STM32Cube_FW_F1_V1.8.4/Drivers/STM32F1xx_HAL_Driver/Src\stm32f1xx_hal_rcc_ex.c **** #if defined(STM32F103xE) || defined(STM32F103xG)
 525:C:/Users/vovua/STM32Cube/Repository/STM32Cube_FW_F1_V1.8.4/Drivers/STM32F1xx_HAL_Driver/Src\stm32f1xx_hal_rcc_ex.c ****       /* SYSCLK used as source clock for I2S3 */
 526:C:/Users/vovua/STM32Cube/Repository/STM32Cube_FW_F1_V1.8.4/Drivers/STM32F1xx_HAL_Driver/Src\stm32f1xx_hal_rcc_ex.c ****       frequency = HAL_RCC_GetSysClockFreq();
 527:C:/Users/vovua/STM32Cube/Repository/STM32Cube_FW_F1_V1.8.4/Drivers/STM32F1xx_HAL_Driver/Src\stm32f1xx_hal_rcc_ex.c **** #else
 528:C:/Users/vovua/STM32Cube/Repository/STM32Cube_FW_F1_V1.8.4/Drivers/STM32F1xx_HAL_Driver/Src\stm32f1xx_hal_rcc_ex.c ****       if (__HAL_RCC_GET_I2S3_SOURCE() == RCC_I2S3CLKSOURCE_SYSCLK)
 529:C:/Users/vovua/STM32Cube/Repository/STM32Cube_FW_F1_V1.8.4/Drivers/STM32F1xx_HAL_Driver/Src\stm32f1xx_hal_rcc_ex.c ****       {
 530:C:/Users/vovua/STM32Cube/Repository/STM32Cube_FW_F1_V1.8.4/Drivers/STM32F1xx_HAL_Driver/Src\stm32f1xx_hal_rcc_ex.c ****         /* SYSCLK used as source clock for I2S3 */
 531:C:/Users/vovua/STM32Cube/Repository/STM32Cube_FW_F1_V1.8.4/Drivers/STM32F1xx_HAL_Driver/Src\stm32f1xx_hal_rcc_ex.c ****         frequency = HAL_RCC_GetSysClockFreq();
 532:C:/Users/vovua/STM32Cube/Repository/STM32Cube_FW_F1_V1.8.4/Drivers/STM32F1xx_HAL_Driver/Src\stm32f1xx_hal_rcc_ex.c ****       }
 533:C:/Users/vovua/STM32Cube/Repository/STM32Cube_FW_F1_V1.8.4/Drivers/STM32F1xx_HAL_Driver/Src\stm32f1xx_hal_rcc_ex.c ****       else
 534:C:/Users/vovua/STM32Cube/Repository/STM32Cube_FW_F1_V1.8.4/Drivers/STM32F1xx_HAL_Driver/Src\stm32f1xx_hal_rcc_ex.c ****       {
 535:C:/Users/vovua/STM32Cube/Repository/STM32Cube_FW_F1_V1.8.4/Drivers/STM32F1xx_HAL_Driver/Src\stm32f1xx_hal_rcc_ex.c ****         /* Check if PLLI2S is enabled */
 536:C:/Users/vovua/STM32Cube/Repository/STM32Cube_FW_F1_V1.8.4/Drivers/STM32F1xx_HAL_Driver/Src\stm32f1xx_hal_rcc_ex.c ****         if (HAL_IS_BIT_SET(RCC->CR, RCC_CR_PLL3ON))
 537:C:/Users/vovua/STM32Cube/Repository/STM32Cube_FW_F1_V1.8.4/Drivers/STM32F1xx_HAL_Driver/Src\stm32f1xx_hal_rcc_ex.c ****         {
 538:C:/Users/vovua/STM32Cube/Repository/STM32Cube_FW_F1_V1.8.4/Drivers/STM32F1xx_HAL_Driver/Src\stm32f1xx_hal_rcc_ex.c ****           /* PLLI2SVCO = 2 * PLLI2SCLK = 2 * (HSE/PREDIV2 * PLL3MUL) */
 539:C:/Users/vovua/STM32Cube/Repository/STM32Cube_FW_F1_V1.8.4/Drivers/STM32F1xx_HAL_Driver/Src\stm32f1xx_hal_rcc_ex.c ****           prediv2 = ((RCC->CFGR2 & RCC_CFGR2_PREDIV2) >> RCC_CFGR2_PREDIV2_Pos) + 1;
 540:C:/Users/vovua/STM32Cube/Repository/STM32Cube_FW_F1_V1.8.4/Drivers/STM32F1xx_HAL_Driver/Src\stm32f1xx_hal_rcc_ex.c ****           pll3mul = ((RCC->CFGR2 & RCC_CFGR2_PLL3MUL) >> RCC_CFGR2_PLL3MUL_Pos) + 2;
 541:C:/Users/vovua/STM32Cube/Repository/STM32Cube_FW_F1_V1.8.4/Drivers/STM32F1xx_HAL_Driver/Src\stm32f1xx_hal_rcc_ex.c ****           frequency = (uint32_t)(2 * ((HSE_VALUE / prediv2) * pll3mul));
 542:C:/Users/vovua/STM32Cube/Repository/STM32Cube_FW_F1_V1.8.4/Drivers/STM32F1xx_HAL_Driver/Src\stm32f1xx_hal_rcc_ex.c ****         }
 543:C:/Users/vovua/STM32Cube/Repository/STM32Cube_FW_F1_V1.8.4/Drivers/STM32F1xx_HAL_Driver/Src\stm32f1xx_hal_rcc_ex.c ****       }
 544:C:/Users/vovua/STM32Cube/Repository/STM32Cube_FW_F1_V1.8.4/Drivers/STM32F1xx_HAL_Driver/Src\stm32f1xx_hal_rcc_ex.c **** #endif /* STM32F103xE || STM32F103xG */
 545:C:/Users/vovua/STM32Cube/Repository/STM32Cube_FW_F1_V1.8.4/Drivers/STM32F1xx_HAL_Driver/Src\stm32f1xx_hal_rcc_ex.c ****       break;
 546:C:/Users/vovua/STM32Cube/Repository/STM32Cube_FW_F1_V1.8.4/Drivers/STM32F1xx_HAL_Driver/Src\stm32f1xx_hal_rcc_ex.c ****     }
ARM GAS  C:\Users\vovua\AppData\Local\Temp\ccmOFQ3a.s 			page 18


 547:C:/Users/vovua/STM32Cube/Repository/STM32Cube_FW_F1_V1.8.4/Drivers/STM32F1xx_HAL_Driver/Src\stm32f1xx_hal_rcc_ex.c **** #endif /* STM32F103xE || STM32F103xG || STM32F105xC || STM32F107xC */
 548:C:/Users/vovua/STM32Cube/Repository/STM32Cube_FW_F1_V1.8.4/Drivers/STM32F1xx_HAL_Driver/Src\stm32f1xx_hal_rcc_ex.c ****     case RCC_PERIPHCLK_RTC:
 549:C:/Users/vovua/STM32Cube/Repository/STM32Cube_FW_F1_V1.8.4/Drivers/STM32F1xx_HAL_Driver/Src\stm32f1xx_hal_rcc_ex.c ****     {
 550:C:/Users/vovua/STM32Cube/Repository/STM32Cube_FW_F1_V1.8.4/Drivers/STM32F1xx_HAL_Driver/Src\stm32f1xx_hal_rcc_ex.c ****       /* Get RCC BDCR configuration ------------------------------------------------------*/
 551:C:/Users/vovua/STM32Cube/Repository/STM32Cube_FW_F1_V1.8.4/Drivers/STM32F1xx_HAL_Driver/Src\stm32f1xx_hal_rcc_ex.c ****       temp_reg = RCC->BDCR;
 552:C:/Users/vovua/STM32Cube/Repository/STM32Cube_FW_F1_V1.8.4/Drivers/STM32F1xx_HAL_Driver/Src\stm32f1xx_hal_rcc_ex.c **** 
 553:C:/Users/vovua/STM32Cube/Repository/STM32Cube_FW_F1_V1.8.4/Drivers/STM32F1xx_HAL_Driver/Src\stm32f1xx_hal_rcc_ex.c ****       /* Check if LSE is ready if RTC clock selection is LSE */
 554:C:/Users/vovua/STM32Cube/Repository/STM32Cube_FW_F1_V1.8.4/Drivers/STM32F1xx_HAL_Driver/Src\stm32f1xx_hal_rcc_ex.c ****       if (((temp_reg & RCC_BDCR_RTCSEL) == RCC_RTCCLKSOURCE_LSE) && (HAL_IS_BIT_SET(temp_reg, RCC_B
 555:C:/Users/vovua/STM32Cube/Repository/STM32Cube_FW_F1_V1.8.4/Drivers/STM32F1xx_HAL_Driver/Src\stm32f1xx_hal_rcc_ex.c ****       {
 556:C:/Users/vovua/STM32Cube/Repository/STM32Cube_FW_F1_V1.8.4/Drivers/STM32F1xx_HAL_Driver/Src\stm32f1xx_hal_rcc_ex.c ****         frequency = LSE_VALUE;
 557:C:/Users/vovua/STM32Cube/Repository/STM32Cube_FW_F1_V1.8.4/Drivers/STM32F1xx_HAL_Driver/Src\stm32f1xx_hal_rcc_ex.c ****       }
 558:C:/Users/vovua/STM32Cube/Repository/STM32Cube_FW_F1_V1.8.4/Drivers/STM32F1xx_HAL_Driver/Src\stm32f1xx_hal_rcc_ex.c ****       /* Check if LSI is ready if RTC clock selection is LSI */
 559:C:/Users/vovua/STM32Cube/Repository/STM32Cube_FW_F1_V1.8.4/Drivers/STM32F1xx_HAL_Driver/Src\stm32f1xx_hal_rcc_ex.c ****       else if (((temp_reg & RCC_BDCR_RTCSEL) == RCC_RTCCLKSOURCE_LSI) && (HAL_IS_BIT_SET(RCC->CSR, 
 560:C:/Users/vovua/STM32Cube/Repository/STM32Cube_FW_F1_V1.8.4/Drivers/STM32F1xx_HAL_Driver/Src\stm32f1xx_hal_rcc_ex.c ****       {
 561:C:/Users/vovua/STM32Cube/Repository/STM32Cube_FW_F1_V1.8.4/Drivers/STM32F1xx_HAL_Driver/Src\stm32f1xx_hal_rcc_ex.c ****         frequency = LSI_VALUE;
 562:C:/Users/vovua/STM32Cube/Repository/STM32Cube_FW_F1_V1.8.4/Drivers/STM32F1xx_HAL_Driver/Src\stm32f1xx_hal_rcc_ex.c ****       }
 563:C:/Users/vovua/STM32Cube/Repository/STM32Cube_FW_F1_V1.8.4/Drivers/STM32F1xx_HAL_Driver/Src\stm32f1xx_hal_rcc_ex.c ****       else if (((temp_reg & RCC_BDCR_RTCSEL) == RCC_RTCCLKSOURCE_HSE_DIV128) && (HAL_IS_BIT_SET(RCC
 564:C:/Users/vovua/STM32Cube/Repository/STM32Cube_FW_F1_V1.8.4/Drivers/STM32F1xx_HAL_Driver/Src\stm32f1xx_hal_rcc_ex.c ****       {
 565:C:/Users/vovua/STM32Cube/Repository/STM32Cube_FW_F1_V1.8.4/Drivers/STM32F1xx_HAL_Driver/Src\stm32f1xx_hal_rcc_ex.c ****         frequency = HSE_VALUE / 128U;
 566:C:/Users/vovua/STM32Cube/Repository/STM32Cube_FW_F1_V1.8.4/Drivers/STM32F1xx_HAL_Driver/Src\stm32f1xx_hal_rcc_ex.c ****       }
 567:C:/Users/vovua/STM32Cube/Repository/STM32Cube_FW_F1_V1.8.4/Drivers/STM32F1xx_HAL_Driver/Src\stm32f1xx_hal_rcc_ex.c ****       /* Clock not enabled for RTC*/
 568:C:/Users/vovua/STM32Cube/Repository/STM32Cube_FW_F1_V1.8.4/Drivers/STM32F1xx_HAL_Driver/Src\stm32f1xx_hal_rcc_ex.c ****       else
 569:C:/Users/vovua/STM32Cube/Repository/STM32Cube_FW_F1_V1.8.4/Drivers/STM32F1xx_HAL_Driver/Src\stm32f1xx_hal_rcc_ex.c ****       {
 570:C:/Users/vovua/STM32Cube/Repository/STM32Cube_FW_F1_V1.8.4/Drivers/STM32F1xx_HAL_Driver/Src\stm32f1xx_hal_rcc_ex.c ****         /* nothing to do: frequency already initialized to 0U */
 571:C:/Users/vovua/STM32Cube/Repository/STM32Cube_FW_F1_V1.8.4/Drivers/STM32F1xx_HAL_Driver/Src\stm32f1xx_hal_rcc_ex.c ****       }
 572:C:/Users/vovua/STM32Cube/Repository/STM32Cube_FW_F1_V1.8.4/Drivers/STM32F1xx_HAL_Driver/Src\stm32f1xx_hal_rcc_ex.c ****       break;
 573:C:/Users/vovua/STM32Cube/Repository/STM32Cube_FW_F1_V1.8.4/Drivers/STM32F1xx_HAL_Driver/Src\stm32f1xx_hal_rcc_ex.c ****     }
 574:C:/Users/vovua/STM32Cube/Repository/STM32Cube_FW_F1_V1.8.4/Drivers/STM32F1xx_HAL_Driver/Src\stm32f1xx_hal_rcc_ex.c ****     case RCC_PERIPHCLK_ADC:
 575:C:/Users/vovua/STM32Cube/Repository/STM32Cube_FW_F1_V1.8.4/Drivers/STM32F1xx_HAL_Driver/Src\stm32f1xx_hal_rcc_ex.c ****     {
 576:C:/Users/vovua/STM32Cube/Repository/STM32Cube_FW_F1_V1.8.4/Drivers/STM32F1xx_HAL_Driver/Src\stm32f1xx_hal_rcc_ex.c ****       frequency = HAL_RCC_GetPCLK2Freq() / (((__HAL_RCC_GET_ADC_SOURCE() >> RCC_CFGR_ADCPRE_Pos) + 
 577:C:/Users/vovua/STM32Cube/Repository/STM32Cube_FW_F1_V1.8.4/Drivers/STM32F1xx_HAL_Driver/Src\stm32f1xx_hal_rcc_ex.c ****       break;
 578:C:/Users/vovua/STM32Cube/Repository/STM32Cube_FW_F1_V1.8.4/Drivers/STM32F1xx_HAL_Driver/Src\stm32f1xx_hal_rcc_ex.c ****     }
 579:C:/Users/vovua/STM32Cube/Repository/STM32Cube_FW_F1_V1.8.4/Drivers/STM32F1xx_HAL_Driver/Src\stm32f1xx_hal_rcc_ex.c ****     default:
 580:C:/Users/vovua/STM32Cube/Repository/STM32Cube_FW_F1_V1.8.4/Drivers/STM32F1xx_HAL_Driver/Src\stm32f1xx_hal_rcc_ex.c ****     {
 581:C:/Users/vovua/STM32Cube/Repository/STM32Cube_FW_F1_V1.8.4/Drivers/STM32F1xx_HAL_Driver/Src\stm32f1xx_hal_rcc_ex.c ****       break;
 582:C:/Users/vovua/STM32Cube/Repository/STM32Cube_FW_F1_V1.8.4/Drivers/STM32F1xx_HAL_Driver/Src\stm32f1xx_hal_rcc_ex.c ****     }
 583:C:/Users/vovua/STM32Cube/Repository/STM32Cube_FW_F1_V1.8.4/Drivers/STM32F1xx_HAL_Driver/Src\stm32f1xx_hal_rcc_ex.c ****   }
 584:C:/Users/vovua/STM32Cube/Repository/STM32Cube_FW_F1_V1.8.4/Drivers/STM32F1xx_HAL_Driver/Src\stm32f1xx_hal_rcc_ex.c ****   return (frequency);
 585:C:/Users/vovua/STM32Cube/Repository/STM32Cube_FW_F1_V1.8.4/Drivers/STM32F1xx_HAL_Driver/Src\stm32f1xx_hal_rcc_ex.c **** }
 400              		.loc 1 585 1 is_stmt 0 view .LVU116
 401 002e 07B0     		add	sp, sp, #28
 402              	.LCFI5:
 403              		.cfi_remember_state
 404              		.cfi_def_cfa_offset 4
 405              		@ sp needed
 406 0030 5DF804FB 		ldr	pc, [sp], #4
 407              	.LVL31:
 408              	.L27:
 409              	.LCFI6:
 410              		.cfi_restore_state
 416:C:/Users/vovua/STM32Cube/Repository/STM32Cube_FW_F1_V1.8.4/Drivers/STM32F1xx_HAL_Driver/Src\stm32f1xx_hal_rcc_ex.c **** 
 411              		.loc 1 416 7 is_stmt 1 view .LVU117
 416:C:/Users/vovua/STM32Cube/Repository/STM32Cube_FW_F1_V1.8.4/Drivers/STM32F1xx_HAL_Driver/Src\stm32f1xx_hal_rcc_ex.c **** 
 412              		.loc 1 416 16 is_stmt 0 view .LVU118
 413 0034 2E4B     		ldr	r3, .L40+4
 414 0036 5A68     		ldr	r2, [r3, #4]
 415              	.LVL32:
ARM GAS  C:\Users\vovua\AppData\Local\Temp\ccmOFQ3a.s 			page 19


 419:C:/Users/vovua/STM32Cube/Repository/STM32Cube_FW_F1_V1.8.4/Drivers/STM32F1xx_HAL_Driver/Src\stm32f1xx_hal_rcc_ex.c ****       {
 416              		.loc 1 419 7 is_stmt 1 view .LVU119
 419:C:/Users/vovua/STM32Cube/Repository/STM32Cube_FW_F1_V1.8.4/Drivers/STM32F1xx_HAL_Driver/Src\stm32f1xx_hal_rcc_ex.c ****       {
 417              		.loc 1 419 11 is_stmt 0 view .LVU120
 418 0038 1868     		ldr	r0, [r3]
 419:C:/Users/vovua/STM32Cube/Repository/STM32Cube_FW_F1_V1.8.4/Drivers/STM32F1xx_HAL_Driver/Src\stm32f1xx_hal_rcc_ex.c ****       {
 419              		.loc 1 419 10 view .LVU121
 420 003a 10F08070 		ands	r0, r0, #16777216
 421 003e F6D0     		beq	.L25
 421:C:/Users/vovua/STM32Cube/Repository/STM32Cube_FW_F1_V1.8.4/Drivers/STM32F1xx_HAL_Driver/Src\stm32f1xx_hal_rcc_ex.c ****         if ((temp_reg & RCC_CFGR_PLLSRC) != RCC_PLLSOURCE_HSI_DIV2)
 422              		.loc 1 421 9 is_stmt 1 view .LVU122
 421:C:/Users/vovua/STM32Cube/Repository/STM32Cube_FW_F1_V1.8.4/Drivers/STM32F1xx_HAL_Driver/Src\stm32f1xx_hal_rcc_ex.c ****         if ((temp_reg & RCC_CFGR_PLLSRC) != RCC_PLLSOURCE_HSI_DIV2)
 423              		.loc 1 421 77 is_stmt 0 view .LVU123
 424 0040 C2F38343 		ubfx	r3, r2, #18, #4
 421:C:/Users/vovua/STM32Cube/Repository/STM32Cube_FW_F1_V1.8.4/Drivers/STM32F1xx_HAL_Driver/Src\stm32f1xx_hal_rcc_ex.c ****         if ((temp_reg & RCC_CFGR_PLLSRC) != RCC_PLLSOURCE_HSI_DIV2)
 425              		.loc 1 421 36 view .LVU124
 426 0044 1833     		adds	r3, r3, #24
 427 0046 6B44     		add	r3, sp, r3
 428 0048 13F8100C 		ldrb	r0, [r3, #-16]	@ zero_extendqisi2
 429              	.LVL33:
 422:C:/Users/vovua/STM32Cube/Repository/STM32Cube_FW_F1_V1.8.4/Drivers/STM32F1xx_HAL_Driver/Src\stm32f1xx_hal_rcc_ex.c ****         {
 430              		.loc 1 422 9 is_stmt 1 view .LVU125
 422:C:/Users/vovua/STM32Cube/Repository/STM32Cube_FW_F1_V1.8.4/Drivers/STM32F1xx_HAL_Driver/Src\stm32f1xx_hal_rcc_ex.c ****         {
 431              		.loc 1 422 12 is_stmt 0 view .LVU126
 432 004c 12F4803F 		tst	r2, #65536
 433 0050 17D0     		beq	.L30
 428:C:/Users/vovua/STM32Cube/Repository/STM32Cube_FW_F1_V1.8.4/Drivers/STM32F1xx_HAL_Driver/Src\stm32f1xx_hal_rcc_ex.c **** #endif /* STM32F105xC || STM32F107xC || STM32F100xB || STM32F100xE */
 434              		.loc 1 428 11 is_stmt 1 view .LVU127
 428:C:/Users/vovua/STM32Cube/Repository/STM32Cube_FW_F1_V1.8.4/Drivers/STM32F1xx_HAL_Driver/Src\stm32f1xx_hal_rcc_ex.c **** #endif /* STM32F105xC || STM32F107xC || STM32F100xB || STM32F100xE */
 435              		.loc 1 428 54 is_stmt 0 view .LVU128
 436 0052 274B     		ldr	r3, .L40+4
 437 0054 5B68     		ldr	r3, [r3, #4]
 428:C:/Users/vovua/STM32Cube/Repository/STM32Cube_FW_F1_V1.8.4/Drivers/STM32F1xx_HAL_Driver/Src\stm32f1xx_hal_rcc_ex.c **** #endif /* STM32F105xC || STM32F107xC || STM32F100xB || STM32F100xE */
 438              		.loc 1 428 82 view .LVU129
 439 0056 C3F34043 		ubfx	r3, r3, #17, #1
 428:C:/Users/vovua/STM32Cube/Repository/STM32Cube_FW_F1_V1.8.4/Drivers/STM32F1xx_HAL_Driver/Src\stm32f1xx_hal_rcc_ex.c **** #endif /* STM32F105xC || STM32F107xC || STM32F100xB || STM32F100xE */
 440              		.loc 1 428 39 view .LVU130
 441 005a 1833     		adds	r3, r3, #24
 442 005c 6B44     		add	r3, sp, r3
 443 005e 13F8142C 		ldrb	r2, [r3, #-20]	@ zero_extendqisi2
 444              	.LVL34:
 453:C:/Users/vovua/STM32Cube/Repository/STM32Cube_FW_F1_V1.8.4/Drivers/STM32F1xx_HAL_Driver/Src\stm32f1xx_hal_rcc_ex.c ****           {
 445              		.loc 1 453 11 is_stmt 1 view .LVU131
 456:C:/Users/vovua/STM32Cube/Repository/STM32Cube_FW_F1_V1.8.4/Drivers/STM32F1xx_HAL_Driver/Src\stm32f1xx_hal_rcc_ex.c ****           }
 446              		.loc 1 456 13 view .LVU132
 456:C:/Users/vovua/STM32Cube/Repository/STM32Cube_FW_F1_V1.8.4/Drivers/STM32F1xx_HAL_Driver/Src\stm32f1xx_hal_rcc_ex.c ****           }
 447              		.loc 1 456 44 is_stmt 0 view .LVU133
 448 0062 244B     		ldr	r3, .L40+8
 449 0064 B3FBF2F3 		udiv	r3, r3, r2
 456:C:/Users/vovua/STM32Cube/Repository/STM32Cube_FW_F1_V1.8.4/Drivers/STM32F1xx_HAL_Driver/Src\stm32f1xx_hal_rcc_ex.c ****           }
 450              		.loc 1 456 20 view .LVU134
 451 0068 03FB00F0 		mul	r0, r3, r0
 452              	.LVL35:
 453              	.L31:
 481:C:/Users/vovua/STM32Cube/Repository/STM32Cube_FW_F1_V1.8.4/Drivers/STM32F1xx_HAL_Driver/Src\stm32f1xx_hal_rcc_ex.c ****         {
 454              		.loc 1 481 9 is_stmt 1 view .LVU135
 481:C:/Users/vovua/STM32Cube/Repository/STM32Cube_FW_F1_V1.8.4/Drivers/STM32F1xx_HAL_Driver/Src\stm32f1xx_hal_rcc_ex.c ****         {
ARM GAS  C:\Users\vovua\AppData\Local\Temp\ccmOFQ3a.s 			page 20


 455              		.loc 1 481 13 is_stmt 0 view .LVU136
 456 006c 204B     		ldr	r3, .L40+4
 457 006e 5B68     		ldr	r3, [r3, #4]
 481:C:/Users/vovua/STM32Cube/Repository/STM32Cube_FW_F1_V1.8.4/Drivers/STM32F1xx_HAL_Driver/Src\stm32f1xx_hal_rcc_ex.c ****         {
 458              		.loc 1 481 12 view .LVU137
 459 0070 13F4800F 		tst	r3, #4194304
 460 0074 DBD1     		bne	.L25
 489:C:/Users/vovua/STM32Cube/Repository/STM32Cube_FW_F1_V1.8.4/Drivers/STM32F1xx_HAL_Driver/Src\stm32f1xx_hal_rcc_ex.c ****         }
 461              		.loc 1 489 11 is_stmt 1 view .LVU138
 489:C:/Users/vovua/STM32Cube/Repository/STM32Cube_FW_F1_V1.8.4/Drivers/STM32F1xx_HAL_Driver/Src\stm32f1xx_hal_rcc_ex.c ****         }
 462              		.loc 1 489 31 is_stmt 0 view .LVU139
 463 0076 4000     		lsls	r0, r0, #1
 464              	.LVL36:
 489:C:/Users/vovua/STM32Cube/Repository/STM32Cube_FW_F1_V1.8.4/Drivers/STM32F1xx_HAL_Driver/Src\stm32f1xx_hal_rcc_ex.c ****         }
 465              		.loc 1 489 21 view .LVU140
 466 0078 1F4B     		ldr	r3, .L40+12
 467 007a A3FB0030 		umull	r3, r0, r3, r0
 468 007e 4008     		lsrs	r0, r0, #1
 469              	.LVL37:
 489:C:/Users/vovua/STM32Cube/Repository/STM32Cube_FW_F1_V1.8.4/Drivers/STM32F1xx_HAL_Driver/Src\stm32f1xx_hal_rcc_ex.c ****         }
 470              		.loc 1 489 21 view .LVU141
 471 0080 D5E7     		b	.L25
 472              	.LVL38:
 473              	.L30:
 463:C:/Users/vovua/STM32Cube/Repository/STM32Cube_FW_F1_V1.8.4/Drivers/STM32F1xx_HAL_Driver/Src\stm32f1xx_hal_rcc_ex.c ****         }
 474              		.loc 1 463 11 is_stmt 1 view .LVU142
 463:C:/Users/vovua/STM32Cube/Repository/STM32Cube_FW_F1_V1.8.4/Drivers/STM32F1xx_HAL_Driver/Src\stm32f1xx_hal_rcc_ex.c ****         }
 475              		.loc 1 463 18 is_stmt 0 view .LVU143
 476 0082 1E4B     		ldr	r3, .L40+16
 477 0084 03FB00F0 		mul	r0, r3, r0
 478              	.LVL39:
 463:C:/Users/vovua/STM32Cube/Repository/STM32Cube_FW_F1_V1.8.4/Drivers/STM32F1xx_HAL_Driver/Src\stm32f1xx_hal_rcc_ex.c ****         }
 479              		.loc 1 463 18 view .LVU144
 480 0088 F0E7     		b	.L31
 481              	.LVL40:
 482              	.L28:
 551:C:/Users/vovua/STM32Cube/Repository/STM32Cube_FW_F1_V1.8.4/Drivers/STM32F1xx_HAL_Driver/Src\stm32f1xx_hal_rcc_ex.c **** 
 483              		.loc 1 551 7 is_stmt 1 view .LVU145
 551:C:/Users/vovua/STM32Cube/Repository/STM32Cube_FW_F1_V1.8.4/Drivers/STM32F1xx_HAL_Driver/Src\stm32f1xx_hal_rcc_ex.c **** 
 484              		.loc 1 551 16 is_stmt 0 view .LVU146
 485 008a 194B     		ldr	r3, .L40+4
 486 008c 1B6A     		ldr	r3, [r3, #32]
 487              	.LVL41:
 554:C:/Users/vovua/STM32Cube/Repository/STM32Cube_FW_F1_V1.8.4/Drivers/STM32F1xx_HAL_Driver/Src\stm32f1xx_hal_rcc_ex.c ****       {
 488              		.loc 1 554 7 is_stmt 1 view .LVU147
 554:C:/Users/vovua/STM32Cube/Repository/STM32Cube_FW_F1_V1.8.4/Drivers/STM32F1xx_HAL_Driver/Src\stm32f1xx_hal_rcc_ex.c ****       {
 489              		.loc 1 554 66 is_stmt 0 view .LVU148
 490 008e 40F20232 		movw	r2, #770
 491 0092 1A40     		ands	r2, r2, r3
 554:C:/Users/vovua/STM32Cube/Repository/STM32Cube_FW_F1_V1.8.4/Drivers/STM32F1xx_HAL_Driver/Src\stm32f1xx_hal_rcc_ex.c ****       {
 492              		.loc 1 554 10 view .LVU149
 493 0094 B2F5817F 		cmp	r2, #258
 494 0098 24D0     		beq	.L33
 559:C:/Users/vovua/STM32Cube/Repository/STM32Cube_FW_F1_V1.8.4/Drivers/STM32F1xx_HAL_Driver/Src\stm32f1xx_hal_rcc_ex.c ****       {
 495              		.loc 1 559 12 is_stmt 1 view .LVU150
 559:C:/Users/vovua/STM32Cube/Repository/STM32Cube_FW_F1_V1.8.4/Drivers/STM32F1xx_HAL_Driver/Src\stm32f1xx_hal_rcc_ex.c ****       {
 496              		.loc 1 559 27 is_stmt 0 view .LVU151
ARM GAS  C:\Users\vovua\AppData\Local\Temp\ccmOFQ3a.s 			page 21


 497 009a 03F44073 		and	r3, r3, #768
 498              	.LVL42:
 559:C:/Users/vovua/STM32Cube/Repository/STM32Cube_FW_F1_V1.8.4/Drivers/STM32F1xx_HAL_Driver/Src\stm32f1xx_hal_rcc_ex.c ****       {
 499              		.loc 1 559 15 view .LVU152
 500 009e B3F5007F 		cmp	r3, #512
 501 00a2 04D0     		beq	.L38
 502              	.L32:
 563:C:/Users/vovua/STM32Cube/Repository/STM32Cube_FW_F1_V1.8.4/Drivers/STM32F1xx_HAL_Driver/Src\stm32f1xx_hal_rcc_ex.c ****       {
 503              		.loc 1 563 12 is_stmt 1 view .LVU153
 563:C:/Users/vovua/STM32Cube/Repository/STM32Cube_FW_F1_V1.8.4/Drivers/STM32F1xx_HAL_Driver/Src\stm32f1xx_hal_rcc_ex.c ****       {
 504              		.loc 1 563 15 is_stmt 0 view .LVU154
 505 00a4 B3F5407F 		cmp	r3, #768
 506 00a8 09D0     		beq	.L39
 403:C:/Users/vovua/STM32Cube/Repository/STM32Cube_FW_F1_V1.8.4/Drivers/STM32F1xx_HAL_Driver/Src\stm32f1xx_hal_rcc_ex.c **** 
 507              		.loc 1 403 27 view .LVU155
 508 00aa 0020     		movs	r0, #0
 509 00ac BFE7     		b	.L25
 510              	.L38:
 559:C:/Users/vovua/STM32Cube/Repository/STM32Cube_FW_F1_V1.8.4/Drivers/STM32F1xx_HAL_Driver/Src\stm32f1xx_hal_rcc_ex.c ****       {
 511              		.loc 1 559 75 discriminator 1 view .LVU156
 512 00ae 104A     		ldr	r2, .L40+4
 513 00b0 526A     		ldr	r2, [r2, #36]
 559:C:/Users/vovua/STM32Cube/Repository/STM32Cube_FW_F1_V1.8.4/Drivers/STM32F1xx_HAL_Driver/Src\stm32f1xx_hal_rcc_ex.c ****       {
 514              		.loc 1 559 71 discriminator 1 view .LVU157
 515 00b2 12F0020F 		tst	r2, #2
 516 00b6 F5D0     		beq	.L32
 561:C:/Users/vovua/STM32Cube/Repository/STM32Cube_FW_F1_V1.8.4/Drivers/STM32F1xx_HAL_Driver/Src\stm32f1xx_hal_rcc_ex.c ****       }
 517              		.loc 1 561 19 view .LVU158
 518 00b8 49F64040 		movw	r0, #40000
 519 00bc B7E7     		b	.L25
 520              	.L39:
 563:C:/Users/vovua/STM32Cube/Repository/STM32Cube_FW_F1_V1.8.4/Drivers/STM32F1xx_HAL_Driver/Src\stm32f1xx_hal_rcc_ex.c ****       {
 521              		.loc 1 563 82 discriminator 1 view .LVU159
 522 00be 0C4B     		ldr	r3, .L40+4
 523 00c0 1868     		ldr	r0, [r3]
 563:C:/Users/vovua/STM32Cube/Repository/STM32Cube_FW_F1_V1.8.4/Drivers/STM32F1xx_HAL_Driver/Src\stm32f1xx_hal_rcc_ex.c ****       {
 524              		.loc 1 563 78 discriminator 1 view .LVU160
 525 00c2 10F40030 		ands	r0, r0, #131072
 526 00c6 B2D0     		beq	.L25
 565:C:/Users/vovua/STM32Cube/Repository/STM32Cube_FW_F1_V1.8.4/Drivers/STM32F1xx_HAL_Driver/Src\stm32f1xx_hal_rcc_ex.c ****       }
 527              		.loc 1 565 19 view .LVU161
 528 00c8 4FF22440 		movw	r0, #62500
 529              	.LVL43:
 584:C:/Users/vovua/STM32Cube/Repository/STM32Cube_FW_F1_V1.8.4/Drivers/STM32F1xx_HAL_Driver/Src\stm32f1xx_hal_rcc_ex.c **** }
 530              		.loc 1 584 3 is_stmt 1 view .LVU162
 584:C:/Users/vovua/STM32Cube/Repository/STM32Cube_FW_F1_V1.8.4/Drivers/STM32F1xx_HAL_Driver/Src\stm32f1xx_hal_rcc_ex.c **** }
 531              		.loc 1 584 10 is_stmt 0 view .LVU163
 532 00cc AFE7     		b	.L25
 533              	.LVL44:
 534              	.L26:
 576:C:/Users/vovua/STM32Cube/Repository/STM32Cube_FW_F1_V1.8.4/Drivers/STM32F1xx_HAL_Driver/Src\stm32f1xx_hal_rcc_ex.c ****       break;
 535              		.loc 1 576 7 is_stmt 1 view .LVU164
 576:C:/Users/vovua/STM32Cube/Repository/STM32Cube_FW_F1_V1.8.4/Drivers/STM32F1xx_HAL_Driver/Src\stm32f1xx_hal_rcc_ex.c ****       break;
 536              		.loc 1 576 19 is_stmt 0 view .LVU165
 537 00ce FFF7FEFF 		bl	HAL_RCC_GetPCLK2Freq
 538              	.LVL45:
 576:C:/Users/vovua/STM32Cube/Repository/STM32Cube_FW_F1_V1.8.4/Drivers/STM32F1xx_HAL_Driver/Src\stm32f1xx_hal_rcc_ex.c ****       break;
ARM GAS  C:\Users\vovua\AppData\Local\Temp\ccmOFQ3a.s 			page 22


 539              		.loc 1 576 47 view .LVU166
 540 00d2 074B     		ldr	r3, .L40+4
 541 00d4 5B68     		ldr	r3, [r3, #4]
 576:C:/Users/vovua/STM32Cube/Repository/STM32Cube_FW_F1_V1.8.4/Drivers/STM32F1xx_HAL_Driver/Src\stm32f1xx_hal_rcc_ex.c ****       break;
 542              		.loc 1 576 74 view .LVU167
 543 00d6 C3F38133 		ubfx	r3, r3, #14, #2
 576:C:/Users/vovua/STM32Cube/Repository/STM32Cube_FW_F1_V1.8.4/Drivers/STM32F1xx_HAL_Driver/Src\stm32f1xx_hal_rcc_ex.c ****       break;
 544              		.loc 1 576 98 view .LVU168
 545 00da 0133     		adds	r3, r3, #1
 576:C:/Users/vovua/STM32Cube/Repository/STM32Cube_FW_F1_V1.8.4/Drivers/STM32F1xx_HAL_Driver/Src\stm32f1xx_hal_rcc_ex.c ****       break;
 546              		.loc 1 576 103 view .LVU169
 547 00dc 5B00     		lsls	r3, r3, #1
 576:C:/Users/vovua/STM32Cube/Repository/STM32Cube_FW_F1_V1.8.4/Drivers/STM32F1xx_HAL_Driver/Src\stm32f1xx_hal_rcc_ex.c ****       break;
 548              		.loc 1 576 17 view .LVU170
 549 00de B0FBF3F0 		udiv	r0, r0, r3
 550              	.LVL46:
 577:C:/Users/vovua/STM32Cube/Repository/STM32Cube_FW_F1_V1.8.4/Drivers/STM32F1xx_HAL_Driver/Src\stm32f1xx_hal_rcc_ex.c ****     }
 551              		.loc 1 577 7 is_stmt 1 view .LVU171
 552 00e2 A4E7     		b	.L25
 553              	.LVL47:
 554              	.L33:
 556:C:/Users/vovua/STM32Cube/Repository/STM32Cube_FW_F1_V1.8.4/Drivers/STM32F1xx_HAL_Driver/Src\stm32f1xx_hal_rcc_ex.c ****       }
 555              		.loc 1 556 19 is_stmt 0 view .LVU172
 556 00e4 4FF40040 		mov	r0, #32768
 557 00e8 A1E7     		b	.L25
 558              	.L41:
 559 00ea 00BF     		.align	2
 560              	.L40:
 561 00ec 00000000 		.word	.LC0
 562 00f0 00100240 		.word	1073876992
 563 00f4 00127A00 		.word	8000000
 564 00f8 ABAAAAAA 		.word	-1431655765
 565 00fc 00093D00 		.word	4000000
 566              		.cfi_endproc
 567              	.LFE67:
 569              		.text
 570              	.Letext0:
 571              		.file 2 "c:\\arm-gnu-toolchain-12.2.rel1-mingw-w64-i686-arm-none-eabi\\arm-none-eabi\\include\\mac
 572              		.file 3 "c:\\arm-gnu-toolchain-12.2.rel1-mingw-w64-i686-arm-none-eabi\\arm-none-eabi\\include\\sys
 573              		.file 4 "C:/Users/vovua/STM32Cube/Repository/STM32Cube_FW_F1_V1.8.4/Drivers/CMSIS/Device/ST/STM32F
 574              		.file 5 "C:/Users/vovua/STM32Cube/Repository/STM32Cube_FW_F1_V1.8.4/Drivers/CMSIS/Device/ST/STM32F
 575              		.file 6 "C:/Users/vovua/STM32Cube/Repository/STM32Cube_FW_F1_V1.8.4/Drivers/STM32F1xx_HAL_Driver/I
 576              		.file 7 "C:/Users/vovua/STM32Cube/Repository/STM32Cube_FW_F1_V1.8.4/Drivers/STM32F1xx_HAL_Driver/I
 577              		.file 8 "C:/Users/vovua/STM32Cube/Repository/STM32Cube_FW_F1_V1.8.4/Drivers/STM32F1xx_HAL_Driver/I
 578              		.file 9 "C:/Users/vovua/STM32Cube/Repository/STM32Cube_FW_F1_V1.8.4/Drivers/STM32F1xx_HAL_Driver/I
ARM GAS  C:\Users\vovua\AppData\Local\Temp\ccmOFQ3a.s 			page 23

